---
triple:          'x86_64-apple-darwin'
binary-path:     disk_sim
relocations:
  - { offset: 0x3F, size: 0x8, addend: 0x0, symName: __ZL5xdata, symObjAddr: 0x108940, symBinAddr: 0x1000275C0, symSize: 0x0 }
  - { offset: 0x15293, size: 0x8, addend: 0x0, symName: __ZNSt3__16chronoL13duration_castINS0_8durationIfNS_5ratioILl1ELl1EEEEExNS3_ILl1ELl1000000EEEEENS_9enable_ifIXsr13__is_durationIT_EE5valueES8_E4typeERKNS2_IT0_T1_EE, symObjAddr: 0x15360, symBinAddr: 0x100015DB0, symSize: 0x200 }
  - { offset: 0x19062, size: 0x8, addend: 0x0, symName: __ZNSt3__114in_place_indexILm0EEE, symObjAddr: 0x23C70, symBinAddr: 0x100023D70, symSize: 0x0 }
  - { offset: 0x190AA, size: 0x8, addend: 0x0, symName: __ZNSt3__114in_place_indexILm1EEE, symObjAddr: 0x23C6F, symBinAddr: 0x100023D6F, symSize: 0x0 }
  - { offset: 0x190F2, size: 0x8, addend: 0x0, symName: __ZNSt3__114in_place_indexILm2EEE, symObjAddr: 0x23C6E, symBinAddr: 0x100023D6E, symSize: 0x0 }
  - { offset: 0x1913A, size: 0x8, addend: 0x0, symName: __ZNSt3__114in_place_indexILm3EEE, symObjAddr: 0x23C6D, symBinAddr: 0x100023D6D, symSize: 0x0 }
  - { offset: 0x19182, size: 0x8, addend: 0x0, symName: __ZNSt3__114in_place_indexILm4EEE, symObjAddr: 0x23C6C, symBinAddr: 0x100023D6C, symSize: 0x0 }
  - { offset: 0x191CA, size: 0x8, addend: 0x0, symName: __ZNSt3__114in_place_indexILm5EEE, symObjAddr: 0x23C6B, symBinAddr: 0x100023D6B, symSize: 0x0 }
  - { offset: 0x22021, size: 0x8, addend: 0x0, symName: __ZNSt3__124__put_character_sequenceIcNS_11char_traitsIcEEEERNS_13basic_ostreamIT_T0_EES7_PKS4_m, symObjAddr: 0x1D420, symBinAddr: 0x10001DE70, symSize: 0x8B0 }
  - { offset: 0x22FB9, size: 0x8, addend: 0x0, symName: __ZNSt3__1L3minIiEERKT_S3_S3_, symObjAddr: 0x1BB0, symBinAddr: 0x100002600, symSize: 0x30 }
  - { offset: 0x22FFF, size: 0x8, addend: 0x0, symName: __ZNSt3__1neIPK4DiskEEbRKNS_11__wrap_iterIT_EES8_, symObjAddr: 0x3740, symBinAddr: 0x100004190, symSize: 0x30 }
  - { offset: 0x2370C, size: 0x8, addend: 0x0, symName: __ZNSt3__1lsIcNS_11char_traitsIcEEEERNS_13basic_ostreamIT_T0_EES7_RKNS_8__iom_t5E, symObjAddr: 0x6BB0, symBinAddr: 0x100007600, symSize: 0xF0 }
  - { offset: 0x2375A, size: 0x8, addend: 0x0, symName: __ZNSt3__1L5fixedERNS_8ios_baseE, symObjAddr: 0x6D40, symBinAddr: 0x100007790, symSize: 0x30 }
  - { offset: 0x23789, size: 0x8, addend: 0x0, symName: __ZNSt3__1L12setprecisionEi, symObjAddr: 0x6D70, symBinAddr: 0x1000077C0, symSize: 0x190 }
  - { offset: 0x237B7, size: 0x8, addend: 0x0, symName: __ZNSt3__1plIcNS_11char_traitsIcEENS_9allocatorIcEEEENS_12basic_stringIT_T0_T1_EEPKS6_OS9_, symObjAddr: 0x8DE0, symBinAddr: 0x100009830, symSize: 0x50 }
  - { offset: 0x23810, size: 0x8, addend: 0x0, symName: __ZNSt3__1lsINS_11char_traitsIcEEEERNS_13basic_ostreamIcT_EES6_PKc, symObjAddr: 0x8E30, symBinAddr: 0x100009880, symSize: 0x40 }
  - { offset: 0x23856, size: 0x8, addend: 0x0, symName: __ZNSt3__1neIP4DiskEEbRKNS_11__wrap_iterIT_EES7_, symObjAddr: 0xD880, symBinAddr: 0x10000E2D0, symSize: 0x30 }
  - { offset: 0x2389C, size: 0x8, addend: 0x0, symName: __ZNSt3__1L12__to_addressIhEEPT_S2_, symObjAddr: 0xF4F0, symBinAddr: 0x10000FF40, symSize: 0x10 }
  - { offset: 0x238D4, size: 0x8, addend: 0x0, symName: __ZNSt3__1L19__libcpp_deallocateEPvmm, symObjAddr: 0xF830, symBinAddr: 0x100010280, symSize: 0x30 }
  - { offset: 0x239C4, size: 0x8, addend: 0x0, symName: __ZNSt3__1L24__is_overaligned_for_newEm, symObjAddr: 0xF8C0, symBinAddr: 0x100010310, symSize: 0x20 }
  - { offset: 0x23D29, size: 0x8, addend: 0x0, symName: __ZNSt3__1L12__to_addressIN2sf4Font3RowEEEPT_S5_, symObjAddr: 0x10090, symBinAddr: 0x100010AE0, symSize: 0x10 }
  - { offset: 0x24098, size: 0x8, addend: 0x0, symName: __ZNSt3__1L7launderINS_4pairIKyN2sf5GlyphEEEEEPT_S7_, symObjAddr: 0x10710, symBinAddr: 0x100011160, symSize: 0x20 }
  - { offset: 0x240D0, size: 0x8, addend: 0x0, symName: __ZNSt3__19__launderINS_4pairIKyN2sf5GlyphEEEEEPT_S7_, symObjAddr: 0x10730, symBinAddr: 0x100011180, symSize: 0x10 }
  - { offset: 0x24107, size: 0x8, addend: 0x0, symName: __ZNSt3__1L7launderINS_4pairIKjN2sf4Font4PageEEEEEPT_S8_, symObjAddr: 0x10AA0, symBinAddr: 0x1000114F0, symSize: 0x20 }
  - { offset: 0x2413F, size: 0x8, addend: 0x0, symName: __ZNSt3__19__launderINS_4pairIKjN2sf4Font4PageEEEEEPT_S8_, symObjAddr: 0x10AC0, symBinAddr: 0x100011510, symSize: 0x10 }
  - { offset: 0x24176, size: 0x8, addend: 0x0, symName: __ZNSt3__1L34__libcpp_atomic_refcount_decrementIlEET_RS1_, symObjAddr: 0x10FB0, symBinAddr: 0x100011A00, symSize: 0x70 }
  - { offset: 0x241AD, size: 0x8, addend: 0x0, symName: __ZNSt3__1L3minIiNS_6__lessIiiEEEERKT_S5_S5_T0_, symObjAddr: 0x11020, symBinAddr: 0x100011A70, symSize: 0x170 }
  - { offset: 0x2424E, size: 0x8, addend: 0x0, symName: __ZNSt3__1eqIPK4DiskS3_EEbRKNS_11__wrap_iterIT_EERKNS4_IT0_EE, symObjAddr: 0x11260, symBinAddr: 0x100011CB0, symSize: 0x40 }
  - { offset: 0x2429D, size: 0x8, addend: 0x0, symName: __ZNSt3__1L12__to_addressIcEEPT_S2_, symObjAddr: 0x13730, symBinAddr: 0x100014180, symSize: 0x10 }
  - { offset: 0x242D4, size: 0x8, addend: 0x0, symName: __ZNSt3__1L3maxIPcEERKT_S4_S4_, symObjAddr: 0x13B80, symBinAddr: 0x1000145D0, symSize: 0x30 }
  - { offset: 0x2431A, size: 0x8, addend: 0x0, symName: __ZNSt3__1L3maxIPcNS_6__lessIS1_S1_EEEERKT_S6_S6_T0_, symObjAddr: 0x13E80, symBinAddr: 0x1000148D0, symSize: 0x170 }
  - { offset: 0x243BB, size: 0x8, addend: 0x0, symName: __ZNSt3__1L12__to_addressIN2sf6VertexEEEPT_S4_, symObjAddr: 0x14680, symBinAddr: 0x1000150D0, symSize: 0x10 }
  - { offset: 0x24411, size: 0x8, addend: 0x0, symName: __ZNSt3__1eqIP4DiskS2_EEbRKNS_11__wrap_iterIT_EERKNS3_IT0_EE, symObjAddr: 0x15950, symBinAddr: 0x1000163A0, symSize: 0x40 }
  - { offset: 0x24460, size: 0x8, addend: 0x0, symName: __ZNSt3__1L12__to_addressIfEEPT_S2_, symObjAddr: 0x160E0, symBinAddr: 0x100016B30, symSize: 0x10 }
  - { offset: 0x24497, size: 0x8, addend: 0x0, symName: __ZNSt3__1L3minImEERKT_S3_S3_, symObjAddr: 0x172C0, symBinAddr: 0x100017D10, symSize: 0x30 }
  - { offset: 0x246DE, size: 0x8, addend: 0x0, symName: __ZNSt3__1L3minImNS_6__lessImmEEEERKT_S5_S5_T0_, symObjAddr: 0x17340, symBinAddr: 0x100017D90, symSize: 0x170 }
  - { offset: 0x24780, size: 0x8, addend: 0x0, symName: __ZNSt3__1L20__throw_length_errorEPKc, symObjAddr: 0x17630, symBinAddr: 0x100018080, symSize: 0x70 }
  - { offset: 0x247AA, size: 0x8, addend: 0x0, symName: __ZNSt3__1L17__libcpp_allocateEmm, symObjAddr: 0x176A0, symBinAddr: 0x1000180F0, symSize: 0x60 }
  - { offset: 0x24804, size: 0x8, addend: 0x0, symName: __ZNSt3__1L12__to_addressIiEEPT_S2_, symObjAddr: 0x178C0, symBinAddr: 0x100018310, symSize: 0x10 }
  - { offset: 0x2483C, size: 0x8, addend: 0x0, symName: __ZNSt3__118generate_canonicalIfLm24ENS_23mersenne_twister_engineIjLm32ELm624ELm397ELm31ELj2567483615ELm11ELj4294967295ELm7ELj2636928640ELm15ELj4022730752ELm18ELj1812433253EEEEET_RT1_, symObjAddr: 0x186A0, symBinAddr: 0x1000190F0, symSize: 0x100 }
  - { offset: 0x2493B, size: 0x8, addend: 0x0, symName: __ZNSt3__1L3maxImEERKT_S3_S3_, symObjAddr: 0x1A500, symBinAddr: 0x10001AF50, symSize: 0x30 }
  - { offset: 0x24981, size: 0x8, addend: 0x0, symName: __ZNSt3__1L3maxImNS_6__lessImmEEEERKT_S5_S5_T0_, symObjAddr: 0x1A5E0, symBinAddr: 0x10001B030, symSize: 0x170 }
  - { offset: 0x249E5, size: 0x8, addend: 0x0, symName: __ZNSt3__1L4swapIPfEENS_9enable_ifIXaasr21is_move_constructibleIT_EE5valuesr18is_move_assignableIS3_EE5valueEvE4typeERS3_S6_, symObjAddr: 0x1ADA0, symBinAddr: 0x10001B7F0, symSize: 0x100 }
  - { offset: 0x24A3B, size: 0x8, addend: 0x0, symName: __ZNSt3__1L8distanceIPcEENS_15iterator_traitsIT_E15difference_typeES3_S3_, symObjAddr: 0x1CD30, symBinAddr: 0x10001D780, symSize: 0x30 }
  - { offset: 0x24A81, size: 0x8, addend: 0x0, symName: __ZNSt3__1L10__distanceIPcEENS_15iterator_traitsIT_E15difference_typeES3_S3_NS_26random_access_iterator_tagE, symObjAddr: 0x1D0A0, symBinAddr: 0x10001DAF0, symSize: 0x20 }
  - { offset: 0x24AD4, size: 0x8, addend: 0x0, symName: __ZNSt3__116__pad_and_outputIcNS_11char_traitsIcEEEENS_19ostreambuf_iteratorIT_T0_EES6_PKS4_S8_S8_RNS_8ios_baseES4_, symObjAddr: 0x1DD60, symBinAddr: 0x10001E7B0, symSize: 0x7A0 }
  - { offset: 0x24BB7, size: 0x8, addend: 0x0, symName: __ZNSt3__1L9use_facetINS_5ctypeIcEEEERKT_RKNS_6localeE, symObjAddr: 0x1EE70, symBinAddr: 0x10001F8C0, symSize: 0x30 }
  - { offset: 0x25086, size: 0x8, addend: 0x0, symName: __ZNSt3__1L8distanceIPKcEENS_15iterator_traitsIT_E15difference_typeES4_S4_, symObjAddr: 0x1FAB0, symBinAddr: 0x100020500, symSize: 0x30 }
  - { offset: 0x250CD, size: 0x8, addend: 0x0, symName: __ZNSt3__114__ptr_in_rangeIcEEbPKT_S3_S3_, symObjAddr: 0x1FAE0, symBinAddr: 0x100020530, symSize: 0x40 }
  - { offset: 0x25122, size: 0x8, addend: 0x0, symName: __ZNSt3__1L10__distanceIPKcEENS_15iterator_traitsIT_E15difference_typeES4_S4_NS_26random_access_iterator_tagE, symObjAddr: 0x1FBE0, symBinAddr: 0x100020630, symSize: 0x20 }
  - { offset: 0x25174, size: 0x8, addend: 0x0, symName: __ZNSt3__1L12__to_addressIKcEEPT_S3_, symObjAddr: 0x20070, symBinAddr: 0x100020AC0, symSize: 0x10 }
  - { offset: 0x25219, size: 0x8, addend: 0x0, symName: __ZNSt3__1L12__to_addressI4DiskEEPT_S3_, symObjAddr: 0x21200, symBinAddr: 0x100021C50, symSize: 0x10 }
  - { offset: 0x25250, size: 0x8, addend: 0x0, symName: __ZNSt3__1L17holds_alternativeIN2sf5Event6ClosedEJS3_NS2_7ResizedENS2_9FocusLostENS2_11FocusGainedENS2_11TextEnteredENS2_10KeyPressedENS2_11KeyReleasedENS2_18MouseWheelScrolledENS2_18MouseButtonPressedENS2_19MouseButtonReleasedENS2_10MouseMovedENS2_13MouseMovedRawENS2_12MouseEnteredENS2_9MouseLeftENS2_21JoystickButtonPressedENS2_22JoystickButtonReleasedENS2_13JoystickMovedENS2_17JoystickConnectedENS2_20JoystickDisconnectedENS2_10TouchBeganENS2_10TouchMovedENS2_10TouchEndedENS2_13SensorChangedEEEEbRKNS_7variantIJDpT0_EEE, symObjAddr: 0x224E0, symBinAddr: 0x100022F30, symSize: 0x20 }
  - { offset: 0x25300, size: 0x8, addend: 0x0, symName: __ZNSt3__1L19__holds_alternativeILm0EJN2sf5Event6ClosedENS2_7ResizedENS2_9FocusLostENS2_11FocusGainedENS2_11TextEnteredENS2_10KeyPressedENS2_11KeyReleasedENS2_18MouseWheelScrolledENS2_18MouseButtonPressedENS2_19MouseButtonReleasedENS2_10MouseMovedENS2_13MouseMovedRawENS2_12MouseEnteredENS2_9MouseLeftENS2_21JoystickButtonPressedENS2_22JoystickButtonReleasedENS2_13JoystickMovedENS2_17JoystickConnectedENS2_20JoystickDisconnectedENS2_10TouchBeganENS2_10TouchMovedENS2_10TouchEndedENS2_13SensorChangedEEEEbRKNS_7variantIJDpT0_EEE, symObjAddr: 0x22500, symBinAddr: 0x100022F50, symSize: 0x30 }
  - { offset: 0x253B1, size: 0x8, addend: 0x0, symName: __ZNSt3__1L6get_ifIN2sf5Event10KeyPressedEJNS2_6ClosedENS2_7ResizedENS2_9FocusLostENS2_11FocusGainedENS2_11TextEnteredES3_NS2_11KeyReleasedENS2_18MouseWheelScrolledENS2_18MouseButtonPressedENS2_19MouseButtonReleasedENS2_10MouseMovedENS2_13MouseMovedRawENS2_12MouseEnteredENS2_9MouseLeftENS2_21JoystickButtonPressedENS2_22JoystickButtonReleasedENS2_13JoystickMovedENS2_17JoystickConnectedENS2_20JoystickDisconnectedENS2_10TouchBeganENS2_10TouchMovedENS2_10TouchEndedENS2_13SensorChangedEEEENS_11add_pointerIT_E4typeEPNS_7variantIJDpT0_EEE, symObjAddr: 0x22630, symBinAddr: 0x100023080, symSize: 0x20 }
  - { offset: 0x25461, size: 0x8, addend: 0x0, symName: __ZNSt3__1L6get_ifILm5EJN2sf5Event6ClosedENS2_7ResizedENS2_9FocusLostENS2_11FocusGainedENS2_11TextEnteredENS2_10KeyPressedENS2_11KeyReleasedENS2_18MouseWheelScrolledENS2_18MouseButtonPressedENS2_19MouseButtonReleasedENS2_10MouseMovedENS2_13MouseMovedRawENS2_12MouseEnteredENS2_9MouseLeftENS2_21JoystickButtonPressedENS2_22JoystickButtonReleasedENS2_13JoystickMovedENS2_17JoystickConnectedENS2_20JoystickDisconnectedENS2_10TouchBeganENS2_10TouchMovedENS2_10TouchEndedENS2_13SensorChangedEEEENS_11add_pointerINS_19variant_alternativeIXT_ENS_7variantIJDpT0_EEEE4typeEE4typeEPSV_, symObjAddr: 0x22650, symBinAddr: 0x1000230A0, symSize: 0x20 }
  - { offset: 0x25512, size: 0x8, addend: 0x0, symName: __ZNSt3__1L16__generic_get_ifILm5ENS_7variantIJN2sf5Event6ClosedENS3_7ResizedENS3_9FocusLostENS3_11FocusGainedENS3_11TextEnteredENS3_10KeyPressedENS3_11KeyReleasedENS3_18MouseWheelScrolledENS3_18MouseButtonPressedENS3_19MouseButtonReleasedENS3_10MouseMovedENS3_13MouseMovedRawENS3_12MouseEnteredENS3_9MouseLeftENS3_21JoystickButtonPressedENS3_22JoystickButtonReleasedENS3_13JoystickMovedENS3_17JoystickConnectedENS3_20JoystickDisconnectedENS3_10TouchBeganENS3_10TouchMovedENS3_10TouchEndedENS3_13SensorChangedEEEEEEPDaPT0_, symObjAddr: 0x22670, symBinAddr: 0x1000230C0, symSize: 0x80 }
  - { offset: 0x2555C, size: 0x8, addend: 0x0, symName: __ZNSt3__1L19__holds_alternativeILm5EJN2sf5Event6ClosedENS2_7ResizedENS2_9FocusLostENS2_11FocusGainedENS2_11TextEnteredENS2_10KeyPressedENS2_11KeyReleasedENS2_18MouseWheelScrolledENS2_18MouseButtonPressedENS2_19MouseButtonReleasedENS2_10MouseMovedENS2_13MouseMovedRawENS2_12MouseEnteredENS2_9MouseLeftENS2_21JoystickButtonPressedENS2_22JoystickButtonReleasedENS2_13JoystickMovedENS2_17JoystickConnectedENS2_20JoystickDisconnectedENS2_10TouchBeganENS2_10TouchMovedENS2_10TouchEndedENS2_13SensorChangedEEEEbRKNS_7variantIJDpT0_EEE, symObjAddr: 0x226F0, symBinAddr: 0x100023140, symSize: 0x30 }
  - { offset: 0x26D0C, size: 0x8, addend: 0x0, symName: __ZL5ydata, symObjAddr: 0x108A40, symBinAddr: 0x1000276C0, symSize: 0x0 }
  - { offset: 0x26D25, size: 0x8, addend: 0x0, symName: __ZL17cumulative_counts, symObjAddr: 0x108B40, symBinAddr: 0x1000277C0, symSize: 0x0 }
  - { offset: 0x26EA0, size: 0x8, addend: 0x0, symName: __ZL6g_font, symObjAddr: 0x108B80, symBinAddr: 0x100027800, symSize: 0x0 }
  - { offset: 0x29DAE, size: 0x8, addend: 0x0, symName: __ZN2sf5Color5WhiteE, symObjAddr: 0x23B20, symBinAddr: 0x100023C20, symSize: 0x0 }
  - { offset: 0x29DC2, size: 0x8, addend: 0x0, symName: __ZN2sf5Color5BlackE, symObjAddr: 0x23BE0, symBinAddr: 0x100023CE0, symSize: 0x0 }
  - { offset: 0x2DDB2, size: 0x8, addend: 0x0, symName: _.str, symObjAddr: 0x23C80, symBinAddr: 0x100024A20, symSize: 0x0 }
  - { offset: 0x2DDD1, size: 0x8, addend: 0x0, symName: _.str.5, symObjAddr: 0x23CA0, symBinAddr: 0x100024A40, symSize: 0x0 }
  - { offset: 0x2DDF0, size: 0x8, addend: 0x0, symName: _.str.6, symObjAddr: 0x23CC0, symBinAddr: 0x100024A60, symSize: 0x0 }
  - { offset: 0x2DE0F, size: 0x8, addend: 0x0, symName: _.str.7, symObjAddr: 0x23CE0, symBinAddr: 0x100024A80, symSize: 0x0 }
  - { offset: 0x2DE22, size: 0x8, addend: 0x0, symName: _.str.8, symObjAddr: 0x23D00, symBinAddr: 0x100024AA0, symSize: 0x0 }
  - { offset: 0x2DE41, size: 0x8, addend: 0x0, symName: _.str.9, symObjAddr: 0x23D60, symBinAddr: 0x100024B00, symSize: 0x0 }
  - { offset: 0x2DE6E, size: 0x8, addend: 0x0, symName: _.str.10, symObjAddr: 0x23DC0, symBinAddr: 0x100024B60, symSize: 0x0 }
  - { offset: 0x2DE9A, size: 0x8, addend: 0x0, symName: _.str.11, symObjAddr: 0x23E00, symBinAddr: 0x100024BA0, symSize: 0x0 }
  - { offset: 0x2DED5, size: 0x8, addend: 0x0, symName: __ZL13g_speedFactor, symObjAddr: 0x23B00, symBinAddr: 0x100027000, symSize: 0x0 }
  - { offset: 0x2DEEE, size: 0x8, addend: 0x0, symName: __ZL15collision_count, symObjAddr: 0x108C20, symBinAddr: 0x1000278A0, symSize: 0x0 }
  - { offset: 0x2DF07, size: 0x8, addend: 0x0, symName: __ZL14g_coinFraction, symObjAddr: 0x108C40, symBinAddr: 0x1000278C0, symSize: 0x0 }
  - { offset: 0x2DF2A, size: 0x8, addend: 0x0, symName: _.str.13, symObjAddr: 0x23E20, symBinAddr: 0x100024BC0, symSize: 0x0 }
  - { offset: 0x2ECBA, size: 0x8, addend: 0x0, symName: __ZNKSt3__16chrono15__duration_castINS0_8durationIxNS_5ratioILl1ELl1000000EEEEENS2_IfNS3_ILl1ELl1EEEEES4_Lb1ELb0EEclERKS5_, symObjAddr: 0x15560, symBinAddr: 0x100015FB0, symSize: 0x220 }
  - { offset: 0x2F027, size: 0x8, addend: 0x0, symName: __ZNSt3__16vectorIfNS_9allocatorIfEEEC1Ev, symObjAddr: 0x0, symBinAddr: 0x100000A50, symSize: 0x20 }
  - { offset: 0x2F051, size: 0x8, addend: 0x0, symName: __ZNSt3__16vectorIfNS_9allocatorIfEEED1Ev, symObjAddr: 0x20, symBinAddr: 0x100000A70, symSize: 0x20 }
  - { offset: 0x2F07B, size: 0x8, addend: 0x0, symName: __ZNSt3__16vectorIiNS_9allocatorIiEEEC1EmRKi, symObjAddr: 0x40, symBinAddr: 0x100000A90, symSize: 0x30 }
  - { offset: 0x2F0C5, size: 0x8, addend: 0x0, symName: __ZNSt3__16vectorIiNS_9allocatorIiEEED1Ev, symObjAddr: 0x70, symBinAddr: 0x100000AC0, symSize: 0x20 }
  - { offset: 0x2F0EF, size: 0x8, addend: 0x0, symName: __ZN2sf4FontC1Ev, symObjAddr: 0x90, symBinAddr: 0x100000AE0, symSize: 0x20 }
  - { offset: 0x2F119, size: 0x8, addend: 0x0, symName: __ZN2sf4FontD1Ev, symObjAddr: 0xB0, symBinAddr: 0x100000B00, symSize: 0x20 }
  - { offset: 0x2F145, size: 0x8, addend: 0x0, symName: __Z8distanceR4DiskS0_, symObjAddr: 0xD0, symBinAddr: 0x100000B20, symSize: 0x1A0 }
  - { offset: 0x2F19F, size: 0x8, addend: 0x0, symName: __ZL4sqrtf, symObjAddr: 0x270, symBinAddr: 0x100000CC0, symSize: 0x20 }
  - { offset: 0x2F1CE, size: 0x8, addend: 0x0, symName: __Z21handle_disk_collisionR4DiskS0_RNSt3__123mersenne_twister_engineIjLm32ELm624ELm397ELm31ELj2567483615ELm11ELj4294967295ELm7ELj2636928640ELm15ELj4022730752ELm18ELj1812433253EEE, symObjAddr: 0x290, symBinAddr: 0x100000CE0, symSize: 0x18C0 }
  - { offset: 0x2F36C, size: 0x8, addend: 0x0, symName: __ZNSt3__125uniform_real_distributionIfEC1Eff, symObjAddr: 0x1B50, symBinAddr: 0x1000025A0, symSize: 0x30 }
  - { offset: 0x2F3BA, size: 0x8, addend: 0x0, symName: __ZNSt3__125uniform_real_distributionIfEclINS_23mersenne_twister_engineIjLm32ELm624ELm397ELm31ELj2567483615ELm11ELj4294967295ELm7ELj2636928640ELm15ELj4022730752ELm18ELj1812433253EEEEEfRT_, symObjAddr: 0x1B80, symBinAddr: 0x1000025D0, symSize: 0x30 }
  - { offset: 0x2F3F8, size: 0x8, addend: 0x0, symName: __Z15update_positionR4Diskf, symObjAddr: 0x1BE0, symBinAddr: 0x100002630, symSize: 0xD30 }
  - { offset: 0x2F431, size: 0x8, addend: 0x0, symName: __Z11update_plotRKNSt3__16vectorI4DiskNS_9allocatorIS1_EEEE, symObjAddr: 0x2910, symBinAddr: 0x100003360, symSize: 0xA60 }
  - { offset: 0x2F527, size: 0x8, addend: 0x0, symName: __ZNKSt3__16vectorI4DiskNS_9allocatorIS1_EEE5beginEv, symObjAddr: 0x3370, symBinAddr: 0x100003DC0, symSize: 0x1E0 }
  - { offset: 0x2F550, size: 0x8, addend: 0x0, symName: __ZNKSt3__16vectorI4DiskNS_9allocatorIS1_EEE3endEv, symObjAddr: 0x3550, symBinAddr: 0x100003FA0, symSize: 0x1F0 }
  - { offset: 0x2F579, size: 0x8, addend: 0x0, symName: __ZNKSt3__111__wrap_iterIPK4DiskEdeEv, symObjAddr: 0x3770, symBinAddr: 0x1000041C0, symSize: 0x50 }
  - { offset: 0x2F59F, size: 0x8, addend: 0x0, symName: __ZNSt3__16vectorIiNS_9allocatorIiEEEixEm, symObjAddr: 0x37C0, symBinAddr: 0x100004210, symSize: 0x60 }
  - { offset: 0x2F5D6, size: 0x8, addend: 0x0, symName: __ZNSt3__111__wrap_iterIPK4DiskEppEv, symObjAddr: 0x3820, symBinAddr: 0x100004270, symSize: 0x50 }
  - { offset: 0x2F5FC, size: 0x8, addend: 0x0, symName: __ZNSt3__16vectorIfNS_9allocatorIfEEE9push_backEOf, symObjAddr: 0x3870, symBinAddr: 0x1000042C0, symSize: 0xC0 }
  - { offset: 0x2F633, size: 0x8, addend: 0x0, symName: __ZNSt3__16vectorIfNS_9allocatorIfEEE9push_backERKf, symObjAddr: 0x3930, symBinAddr: 0x100004380, symSize: 0xC0 }
  - { offset: 0x2F66A, size: 0x8, addend: 0x0, symName: __Z15draw_line_graphRN2sf12RenderWindowE, symObjAddr: 0x39F0, symBinAddr: 0x100004440, symSize: 0x2D40 }
  - { offset: 0x2F8C2, size: 0x8, addend: 0x0, symName: __ZN2sf7Vector2IfEC1Eff, symObjAddr: 0x6730, symBinAddr: 0x100007180, symSize: 0x30 }
  - { offset: 0x2F918, size: 0x8, addend: 0x0, symName: '__ZZ15draw_line_graphRN2sf12RenderWindowEENK3$_0clEf', symObjAddr: 0x6760, symBinAddr: 0x1000071B0, symSize: 0x220 }
  - { offset: 0x2FA14, size: 0x8, addend: 0x0, symName: __ZNSt3__118basic_stringstreamIcNS_11char_traitsIcEENS_9allocatorIcEEEC1Ej, symObjAddr: 0x6980, symBinAddr: 0x1000073D0, symSize: 0x230 }
  - { offset: 0x2FA4F, size: 0x8, addend: 0x0, symName: __ZNSt3__113basic_ostreamIcNS_11char_traitsIcEEElsEPFRNS_8ios_baseES5_E, symObjAddr: 0x6CA0, symBinAddr: 0x1000076F0, symSize: 0xA0 }
  - { offset: 0x2FA84, size: 0x8, addend: 0x0, symName: __ZNKSt3__118basic_stringstreamIcNS_11char_traitsIcEENS_9allocatorIcEEE3strEv, symObjAddr: 0x6F00, symBinAddr: 0x100007950, symSize: 0x30 }
  - { offset: 0x2FAAC, size: 0x8, addend: 0x0, symName: __ZN2sf6StringD1Ev, symObjAddr: 0x6F30, symBinAddr: 0x100007980, symSize: 0x20 }
  - { offset: 0x2FB20, size: 0x8, addend: 0x0, symName: __ZN2sf4TextD1Ev, symObjAddr: 0x6F50, symBinAddr: 0x1000079A0, symSize: 0x20 }
  - { offset: 0x2FB4C, size: 0x8, addend: 0x0, symName: __ZNSt3__118basic_stringstreamIcNS_11char_traitsIcEENS_9allocatorIcEEED1Ev, symObjAddr: 0x6F70, symBinAddr: 0x1000079C0, symSize: 0x40 }
  - { offset: 0x2FB9C, size: 0x8, addend: 0x0, symName: __ZN2sf14RectangleShapeD1Ev, symObjAddr: 0x6FB0, symBinAddr: 0x100007A00, symSize: 0x20 }
  - { offset: 0x2FBC8, size: 0x8, addend: 0x0, symName: __ZNKSt3__16vectorIfNS_9allocatorIfEEE4sizeEv, symObjAddr: 0x6FD0, symBinAddr: 0x100007A20, symSize: 0x90 }
  - { offset: 0x2FBFA, size: 0x8, addend: 0x0, symName: '__ZZ15draw_line_graphRN2sf12RenderWindowEENK3$_1clEf', symObjAddr: 0x7060, symBinAddr: 0x100007AB0, symSize: 0x1F0 }
  - { offset: 0x2FC33, size: 0x8, addend: 0x0, symName: __ZNSt3__16vectorIfNS_9allocatorIfEEEixEm, symObjAddr: 0x7250, symBinAddr: 0x100007CA0, symSize: 0x60 }
  - { offset: 0x2FC70, size: 0x8, addend: 0x0, symName: __ZN2sf6VertexC1Ev, symObjAddr: 0x72B0, symBinAddr: 0x100007D00, symSize: 0x20 }
  - { offset: 0x2FC9C, size: 0x8, addend: 0x0, symName: __ZN2sf11VertexArrayD1Ev, symObjAddr: 0x72D0, symBinAddr: 0x100007D20, symSize: 0x20 }
  - { offset: 0x2FCC8, size: 0x8, addend: 0x0, symName: __Z17draw_stats_windowRN2sf12RenderWindowE, symObjAddr: 0x72F0, symBinAddr: 0x100007D40, symSize: 0x1AA0 }
  - { offset: 0x2FD9A, size: 0x8, addend: 0x0, symName: __ZN2sf5ColorC1Ehhhh, symObjAddr: 0x8D90, symBinAddr: 0x1000097E0, symSize: 0x50 }
  - { offset: 0x2FE02, size: 0x8, addend: 0x0, symName: _main, symObjAddr: 0x8E70, symBinAddr: 0x1000098C0, symSize: 0x40A0 }
  - { offset: 0x3015A, size: 0x8, addend: 0x0, symName: __ZNSt3__112basic_stringIcNS_11char_traitsIcEENS_9allocatorIcEEEC1IDnEEPKc, symObjAddr: 0xCF10, symBinAddr: 0x10000D960, symSize: 0x30 }
  - { offset: 0x30198, size: 0x8, addend: 0x0, symName: __ZNSt3__123mersenne_twister_engineIjLm32ELm624ELm397ELm31ELj2567483615ELm11ELj4294967295ELm7ELj2636928640ELm15ELj4022730752ELm18ELj1812433253EEC1Ej, symObjAddr: 0xCF40, symBinAddr: 0x10000D990, symSize: 0x30 }
  - { offset: 0x301E9, size: 0x8, addend: 0x0, symName: __ZNSt3__14__fs10filesystem4pathC1IA35_cvEERKT_NS2_6formatE, symObjAddr: 0xCF70, symBinAddr: 0x10000D9C0, symSize: 0x30 }
  - { offset: 0x30238, size: 0x8, addend: 0x0, symName: __ZNSt3__14__fs10filesystem4pathD1Ev, symObjAddr: 0xCFA0, symBinAddr: 0x10000D9F0, symSize: 0x20 }
  - { offset: 0x30262, size: 0x8, addend: 0x0, symName: __ZN2sf7Vector2IjEC1Ejj, symObjAddr: 0xCFC0, symBinAddr: 0x10000DA10, symSize: 0x30 }
  - { offset: 0x302AC, size: 0x8, addend: 0x0, symName: __ZNSt3__16vectorI4DiskNS_9allocatorIS1_EEEC1Em, symObjAddr: 0xCFF0, symBinAddr: 0x10000DA40, symSize: 0x30 }
  - { offset: 0x302E7, size: 0x8, addend: 0x0, symName: __ZNSt3__16vectorIiNS_9allocatorIiEEEC1ESt16initializer_listIiE, symObjAddr: 0xD020, symBinAddr: 0x10000DA70, symSize: 0x230 }
  - { offset: 0x30327, size: 0x8, addend: 0x0, symName: __ZNSt3__16vectorI4DiskNS_9allocatorIS1_EEEixEm, symObjAddr: 0xD250, symBinAddr: 0x10000DCA0, symSize: 0x60 }
  - { offset: 0x3035E, size: 0x8, addend: 0x0, symName: __ZN2sf5ClockC1Ev, symObjAddr: 0xD2B0, symBinAddr: 0x10000DD00, symSize: 0x20 }
  - { offset: 0x3038A, size: 0x8, addend: 0x0, symName: __ZNK2sf4Time9asSecondsEv, symObjAddr: 0xD2D0, symBinAddr: 0x10000DD20, symSize: 0x160 }
  - { offset: 0x303B3, size: 0x8, addend: 0x0, symName: __ZNKSt3__18optionalIN2sf5EventEEcvbEv, symObjAddr: 0xD430, symBinAddr: 0x10000DE80, symSize: 0x20 }
  - { offset: 0x303D9, size: 0x8, addend: 0x0, symName: __ZNRSt3__18optionalIN2sf5EventEEdeEv, symObjAddr: 0xD450, symBinAddr: 0x10000DEA0, symSize: 0x20 }
  - { offset: 0x30405, size: 0x8, addend: 0x0, symName: __ZNK2sf5Event2isINS0_6ClosedEEEbv, symObjAddr: 0xD470, symBinAddr: 0x10000DEC0, symSize: 0x20 }
  - { offset: 0x30440, size: 0x8, addend: 0x0, symName: __ZN2sf5Event5getIfINS0_10KeyPressedEEEPT_v, symObjAddr: 0xD490, symBinAddr: 0x10000DEE0, symSize: 0x20 }
  - { offset: 0x3046F, size: 0x8, addend: 0x0, symName: __ZNSt3__16vectorI4DiskNS_9allocatorIS1_EEE5beginEv, symObjAddr: 0xD4B0, symBinAddr: 0x10000DF00, symSize: 0x1E0 }
  - { offset: 0x30498, size: 0x8, addend: 0x0, symName: __ZNSt3__16vectorI4DiskNS_9allocatorIS1_EEE3endEv, symObjAddr: 0xD690, symBinAddr: 0x10000E0E0, symSize: 0x1F0 }
  - { offset: 0x304C1, size: 0x8, addend: 0x0, symName: __ZNKSt3__111__wrap_iterIP4DiskEdeEv, symObjAddr: 0xD8B0, symBinAddr: 0x10000E300, symSize: 0x50 }
  - { offset: 0x304E7, size: 0x8, addend: 0x0, symName: __ZNSt3__111__wrap_iterIP4DiskEppEv, symObjAddr: 0xD900, symBinAddr: 0x10000E350, symSize: 0x50 }
  - { offset: 0x3051F, size: 0x8, addend: 0x0, symName: __ZN2sf11CircleShapeD1Ev, symObjAddr: 0xD950, symBinAddr: 0x10000E3A0, symSize: 0x20 }
  - { offset: 0x3054B, size: 0x8, addend: 0x0, symName: __ZNSt3__16vectorI4DiskNS_9allocatorIS1_EEED1Ev, symObjAddr: 0xD970, symBinAddr: 0x10000E3C0, symSize: 0x20 }
  - { offset: 0x30587, size: 0x8, addend: 0x0, symName: __ZN2sf12RenderWindowD1Ev, symObjAddr: 0xD990, symBinAddr: 0x10000E3E0, symSize: 0x20 }
  - { offset: 0x305B3, size: 0x8, addend: 0x0, symName: __ZN2sf4FontC2Ev, symObjAddr: 0xD9B0, symBinAddr: 0x10000E400, symSize: 0xA0 }
  - { offset: 0x305DD, size: 0x8, addend: 0x0, symName: __ZNSt3__110shared_ptrIN2sf4Font11FontHandlesEEC1Ev, symObjAddr: 0xDA50, symBinAddr: 0x10000E4A0, symSize: 0x20 }
  - { offset: 0x3060F, size: 0x8, addend: 0x0, symName: __ZN2sf4Font4InfoC1Ev, symObjAddr: 0xDA70, symBinAddr: 0x10000E4C0, symSize: 0x20 }
  - { offset: 0x3063B, size: 0x8, addend: 0x0, symName: __ZNSt3__113unordered_mapIjN2sf4Font4PageENS_4hashIjEENS_8equal_toIjEENS_9allocatorINS_4pairIKjS3_EEEEEC1Ev, symObjAddr: 0xDA90, symBinAddr: 0x10000E4E0, symSize: 0x20 }
  - { offset: 0x30665, size: 0x8, addend: 0x0, symName: __ZNSt3__16vectorIhNS_9allocatorIhEEEC1Ev, symObjAddr: 0xDAB0, symBinAddr: 0x10000E500, symSize: 0x20 }
  - { offset: 0x3068F, size: 0x8, addend: 0x0, symName: __ZNSt3__110shared_ptrIN2sf4Font11FontHandlesEEC2Ev, symObjAddr: 0xDAD0, symBinAddr: 0x10000E520, symSize: 0x90 }
  - { offset: 0x306BB, size: 0x8, addend: 0x0, symName: __ZN2sf4Font4InfoC2Ev, symObjAddr: 0xDB60, symBinAddr: 0x10000E5B0, symSize: 0x20 }
  - { offset: 0x306E7, size: 0x8, addend: 0x0, symName: __ZNSt3__112basic_stringIcNS_11char_traitsIcEENS_9allocatorIcEEEC1Ev, symObjAddr: 0xDB80, symBinAddr: 0x10000E5D0, symSize: 0x20 }
  - { offset: 0x30713, size: 0x8, addend: 0x0, symName: __ZNSt3__112basic_stringIcNS_11char_traitsIcEENS_9allocatorIcEEEC2Ev, symObjAddr: 0xDBA0, symBinAddr: 0x10000E5F0, symSize: 0x1F0 }
  - { offset: 0x30746, size: 0x8, addend: 0x0, symName: __ZNSt3__117__compressed_pairINS_12basic_stringIcNS_11char_traitsIcEENS_9allocatorIcEEE5__repES5_EC1INS_18__default_init_tagESA_EEOT_OT0_, symObjAddr: 0xDD90, symBinAddr: 0x10000E7E0, symSize: 0x30 }
  - { offset: 0x307A0, size: 0x8, addend: 0x0, symName: __ZNSt3__112basic_stringIcNS_11char_traitsIcEENS_9allocatorIcEEE6__zeroEv, symObjAddr: 0xDDD0, symBinAddr: 0x10000E820, symSize: 0x90 }
  - { offset: 0x307F5, size: 0x8, addend: 0x0, symName: __ZNSt3__117__compressed_pairINS_12basic_stringIcNS_11char_traitsIcEENS_9allocatorIcEEE5__repES5_EC2INS_18__default_init_tagESA_EEOT_OT0_, symObjAddr: 0xDE60, symBinAddr: 0x10000E8B0, symSize: 0x30 }
  - { offset: 0x3084F, size: 0x8, addend: 0x0, symName: __ZNSt3__122__compressed_pair_elemINS_12basic_stringIcNS_11char_traitsIcEENS_9allocatorIcEEE5__repELi0ELb0EEC2ENS_18__default_init_tagE, symObjAddr: 0xDE90, symBinAddr: 0x10000E8E0, symSize: 0x10 }
  - { offset: 0x30885, size: 0x8, addend: 0x0, symName: __ZNSt3__122__compressed_pair_elemINS_9allocatorIcEELi1ELb1EEC2ENS_18__default_init_tagE, symObjAddr: 0xDEA0, symBinAddr: 0x10000E8F0, symSize: 0x20 }
  - { offset: 0x308BB, size: 0x8, addend: 0x0, symName: __ZNSt3__19allocatorIcEC2Ev, symObjAddr: 0xDEC0, symBinAddr: 0x10000E910, symSize: 0x10 }
  - { offset: 0x308E5, size: 0x8, addend: 0x0, symName: __ZNSt3__117__compressed_pairINS_12basic_stringIcNS_11char_traitsIcEENS_9allocatorIcEEE5__repES5_E5firstEv, symObjAddr: 0xDED0, symBinAddr: 0x10000E920, symSize: 0x20 }
  - { offset: 0x3090B, size: 0x8, addend: 0x0, symName: __ZNSt3__122__compressed_pair_elemINS_12basic_stringIcNS_11char_traitsIcEENS_9allocatorIcEEE5__repELi0ELb0EE5__getEv, symObjAddr: 0xDEF0, symBinAddr: 0x10000E940, symSize: 0x10 }
  - { offset: 0x30931, size: 0x8, addend: 0x0, symName: __ZNSt3__113unordered_mapIjN2sf4Font4PageENS_4hashIjEENS_8equal_toIjEENS_9allocatorINS_4pairIKjS3_EEEEEC2Ev, symObjAddr: 0xDF00, symBinAddr: 0x10000E950, symSize: 0x20 }
  - { offset: 0x3095B, size: 0x8, addend: 0x0, symName: __ZNSt3__112__hash_tableINS_17__hash_value_typeIjN2sf4Font4PageEEENS_22__unordered_map_hasherIjS5_NS_4hashIjEELb1EEENS_21__unordered_map_equalIjS5_NS_8equal_toIjEELb1EEENS_9allocatorIS5_EEEC1Ev, symObjAddr: 0xDF20, symBinAddr: 0x10000E970, symSize: 0x20 }
  - { offset: 0x30987, size: 0x8, addend: 0x0, symName: __ZNSt3__112__hash_tableINS_17__hash_value_typeIjN2sf4Font4PageEEENS_22__unordered_map_hasherIjS5_NS_4hashIjEELb1EEENS_21__unordered_map_equalIjS5_NS_8equal_toIjEELb1EEENS_9allocatorIS5_EEEC2Ev, symObjAddr: 0xDF40, symBinAddr: 0x10000E990, symSize: 0x380 }
  - { offset: 0x309B4, size: 0x8, addend: 0x0, symName: __ZNSt3__110unique_ptrIA_PNS_16__hash_node_baseIPNS_11__hash_nodeINS_17__hash_value_typeIjN2sf4Font4PageEEEPvEEEENS_25__bucket_list_deallocatorINS_9allocatorISC_EEEEEC1ILb1EvEEv, symObjAddr: 0xE2C0, symBinAddr: 0x10000ED10, symSize: 0x20 }
  - { offset: 0x309E9, size: 0x8, addend: 0x0, symName: __ZNSt3__117__compressed_pairINS_16__hash_node_baseIPNS_11__hash_nodeINS_17__hash_value_typeIjN2sf4Font4PageEEEPvEEEENS_9allocatorIS9_EEEC1ILb1EvEEv, symObjAddr: 0xE2E0, symBinAddr: 0x10000ED30, symSize: 0x20 }
  - { offset: 0x30A24, size: 0x8, addend: 0x0, symName: __ZNSt3__117__compressed_pairImNS_22__unordered_map_hasherIjNS_17__hash_value_typeIjN2sf4Font4PageEEENS_4hashIjEELb1EEEEC1IiNS_18__default_init_tagEEEOT_OT0_, symObjAddr: 0xE300, symBinAddr: 0x10000ED50, symSize: 0x30 }
  - { offset: 0x30A84, size: 0x8, addend: 0x0, symName: __ZNSt3__117__compressed_pairIfNS_21__unordered_map_equalIjNS_17__hash_value_typeIjN2sf4Font4PageEEENS_8equal_toIjEELb1EEEEC1IfNS_18__default_init_tagEEEOT_OT0_, symObjAddr: 0xE330, symBinAddr: 0x10000ED80, symSize: 0x30 }
  - { offset: 0x30ADE, size: 0x8, addend: 0x0, symName: __ZNSt3__110unique_ptrIA_PNS_16__hash_node_baseIPNS_11__hash_nodeINS_17__hash_value_typeIjN2sf4Font4PageEEEPvEEEENS_25__bucket_list_deallocatorINS_9allocatorISC_EEEEEC2ILb1EvEEv, symObjAddr: 0xE360, symBinAddr: 0x10000EDB0, symSize: 0x240 }
  - { offset: 0x30B1A, size: 0x8, addend: 0x0, symName: __ZNSt3__117__compressed_pairIPPNS_16__hash_node_baseIPNS_11__hash_nodeINS_17__hash_value_typeIjN2sf4Font4PageEEEPvEEEENS_25__bucket_list_deallocatorINS_9allocatorISC_EEEEEC1ISD_NS_18__default_init_tagEEEOT_OT0_, symObjAddr: 0xE5A0, symBinAddr: 0x10000EFF0, symSize: 0x30 }
  - { offset: 0x30B74, size: 0x8, addend: 0x0, symName: __ZNSt3__117__compressed_pairIPPNS_16__hash_node_baseIPNS_11__hash_nodeINS_17__hash_value_typeIjN2sf4Font4PageEEEPvEEEENS_25__bucket_list_deallocatorINS_9allocatorISC_EEEEEC2ISD_NS_18__default_init_tagEEEOT_OT0_, symObjAddr: 0xE5D0, symBinAddr: 0x10000F020, symSize: 0x40 }
  - { offset: 0x30BCE, size: 0x8, addend: 0x0, symName: __ZNSt3__122__compressed_pair_elemIPPNS_16__hash_node_baseIPNS_11__hash_nodeINS_17__hash_value_typeIjN2sf4Font4PageEEEPvEEEELi0ELb0EEC2ISD_vEEOT_, symObjAddr: 0xE610, symBinAddr: 0x10000F060, symSize: 0x90 }
  - { offset: 0x30C11, size: 0x8, addend: 0x0, symName: __ZNSt3__122__compressed_pair_elemINS_25__bucket_list_deallocatorINS_9allocatorIPNS_16__hash_node_baseIPNS_11__hash_nodeINS_17__hash_value_typeIjN2sf4Font4PageEEEPvEEEEEEEELi1ELb0EEC2ENS_18__default_init_tagE, symObjAddr: 0xE6A0, symBinAddr: 0x10000F0F0, symSize: 0x20 }
  - { offset: 0x30C47, size: 0x8, addend: 0x0, symName: __ZNSt3__125__bucket_list_deallocatorINS_9allocatorIPNS_16__hash_node_baseIPNS_11__hash_nodeINS_17__hash_value_typeIjN2sf4Font4PageEEEPvEEEEEEEC1Ev, symObjAddr: 0xE6C0, symBinAddr: 0x10000F110, symSize: 0x20 }
  - { offset: 0x30C71, size: 0x8, addend: 0x0, symName: __ZNSt3__125__bucket_list_deallocatorINS_9allocatorIPNS_16__hash_node_baseIPNS_11__hash_nodeINS_17__hash_value_typeIjN2sf4Font4PageEEEPvEEEEEEEC2Ev, symObjAddr: 0xE6E0, symBinAddr: 0x10000F130, symSize: 0x240 }
  - { offset: 0x30C9C, size: 0x8, addend: 0x0, symName: __ZNSt3__117__compressed_pairImNS_9allocatorIPNS_16__hash_node_baseIPNS_11__hash_nodeINS_17__hash_value_typeIjN2sf4Font4PageEEEPvEEEEEEEC1IiNS_18__default_init_tagEEEOT_OT0_, symObjAddr: 0xE920, symBinAddr: 0x10000F370, symSize: 0x30 }
  - { offset: 0x30CF6, size: 0x8, addend: 0x0, symName: __ZNSt3__117__compressed_pairImNS_9allocatorIPNS_16__hash_node_baseIPNS_11__hash_nodeINS_17__hash_value_typeIjN2sf4Font4PageEEEPvEEEEEEEC2IiNS_18__default_init_tagEEEOT_OT0_, symObjAddr: 0xE950, symBinAddr: 0x10000F3A0, symSize: 0x40 }
  - { offset: 0x30D50, size: 0x8, addend: 0x0, symName: __ZNSt3__122__compressed_pair_elemImLi0ELb0EEC2IivEEOT_, symObjAddr: 0xE990, symBinAddr: 0x10000F3E0, symSize: 0xB0 }
  - { offset: 0x30D93, size: 0x8, addend: 0x0, symName: __ZNSt3__122__compressed_pair_elemINS_9allocatorIPNS_16__hash_node_baseIPNS_11__hash_nodeINS_17__hash_value_typeIjN2sf4Font4PageEEEPvEEEEEELi1ELb1EEC2ENS_18__default_init_tagE, symObjAddr: 0xEA40, symBinAddr: 0x10000F490, symSize: 0x20 }
  - { offset: 0x30DC9, size: 0x8, addend: 0x0, symName: __ZNSt3__19allocatorIPNS_16__hash_node_baseIPNS_11__hash_nodeINS_17__hash_value_typeIjN2sf4Font4PageEEEPvEEEEEC2Ev, symObjAddr: 0xEA60, symBinAddr: 0x10000F4B0, symSize: 0x10 }
  - { offset: 0x30DF3, size: 0x8, addend: 0x0, symName: __ZNSt3__117__compressed_pairINS_16__hash_node_baseIPNS_11__hash_nodeINS_17__hash_value_typeIjN2sf4Font4PageEEEPvEEEENS_9allocatorIS9_EEEC2ILb1EvEEv, symObjAddr: 0xEA70, symBinAddr: 0x10000F4C0, symSize: 0x30 }
  - { offset: 0x30E28, size: 0x8, addend: 0x0, symName: __ZNSt3__122__compressed_pair_elemINS_16__hash_node_baseIPNS_11__hash_nodeINS_17__hash_value_typeIjN2sf4Font4PageEEEPvEEEELi0ELb0EEC2ENS_16__value_init_tagE, symObjAddr: 0xEAA0, symBinAddr: 0x10000F4F0, symSize: 0x20 }
  - { offset: 0x30E5E, size: 0x8, addend: 0x0, symName: __ZNSt3__122__compressed_pair_elemINS_9allocatorINS_11__hash_nodeINS_17__hash_value_typeIjN2sf4Font4PageEEEPvEEEELi1ELb1EEC2ENS_16__value_init_tagE, symObjAddr: 0xEAC0, symBinAddr: 0x10000F510, symSize: 0x20 }
  - { offset: 0x30E94, size: 0x8, addend: 0x0, symName: __ZNSt3__116__hash_node_baseIPNS_11__hash_nodeINS_17__hash_value_typeIjN2sf4Font4PageEEEPvEEEC1Ev, symObjAddr: 0xEAE0, symBinAddr: 0x10000F530, symSize: 0x20 }
  - { offset: 0x30EBE, size: 0x8, addend: 0x0, symName: __ZNSt3__116__hash_node_baseIPNS_11__hash_nodeINS_17__hash_value_typeIjN2sf4Font4PageEEEPvEEEC2Ev, symObjAddr: 0xEB00, symBinAddr: 0x10000F550, symSize: 0x50 }
  - { offset: 0x30EE8, size: 0x8, addend: 0x0, symName: __ZNSt3__19allocatorINS_11__hash_nodeINS_17__hash_value_typeIjN2sf4Font4PageEEEPvEEEC2Ev, symObjAddr: 0xEB50, symBinAddr: 0x10000F5A0, symSize: 0x10 }
  - { offset: 0x30F12, size: 0x8, addend: 0x0, symName: __ZNSt3__117__compressed_pairImNS_22__unordered_map_hasherIjNS_17__hash_value_typeIjN2sf4Font4PageEEENS_4hashIjEELb1EEEEC2IiNS_18__default_init_tagEEEOT_OT0_, symObjAddr: 0xEB60, symBinAddr: 0x10000F5B0, symSize: 0x40 }
  - { offset: 0x30F6C, size: 0x8, addend: 0x0, symName: __ZNSt3__122__compressed_pair_elemINS_22__unordered_map_hasherIjNS_17__hash_value_typeIjN2sf4Font4PageEEENS_4hashIjEELb1EEELi1ELb1EEC2ENS_18__default_init_tagE, symObjAddr: 0xEBA0, symBinAddr: 0x10000F5F0, symSize: 0x20 }
  - { offset: 0x30FA2, size: 0x8, addend: 0x0, symName: __ZNSt3__122__unordered_map_hasherIjNS_17__hash_value_typeIjN2sf4Font4PageEEENS_4hashIjEELb1EEC2Ev, symObjAddr: 0xEBC0, symBinAddr: 0x10000F610, symSize: 0x10 }
  - { offset: 0x30FCC, size: 0x8, addend: 0x0, symName: __ZNSt3__117__compressed_pairIfNS_21__unordered_map_equalIjNS_17__hash_value_typeIjN2sf4Font4PageEEENS_8equal_toIjEELb1EEEEC2IfNS_18__default_init_tagEEEOT_OT0_, symObjAddr: 0xEBD0, symBinAddr: 0x10000F620, symSize: 0x40 }
  - { offset: 0x31026, size: 0x8, addend: 0x0, symName: __ZNSt3__122__compressed_pair_elemIfLi0ELb0EEC2IfvEEOT_, symObjAddr: 0xEC10, symBinAddr: 0x10000F660, symSize: 0xD0 }
  - { offset: 0x31069, size: 0x8, addend: 0x0, symName: __ZNSt3__122__compressed_pair_elemINS_21__unordered_map_equalIjNS_17__hash_value_typeIjN2sf4Font4PageEEENS_8equal_toIjEELb1EEELi1ELb1EEC2ENS_18__default_init_tagE, symObjAddr: 0xECE0, symBinAddr: 0x10000F730, symSize: 0x20 }
  - { offset: 0x3109F, size: 0x8, addend: 0x0, symName: __ZNSt3__121__unordered_map_equalIjNS_17__hash_value_typeIjN2sf4Font4PageEEENS_8equal_toIjEELb1EEC2Ev, symObjAddr: 0xED00, symBinAddr: 0x10000F750, symSize: 0x10 }
  - { offset: 0x310C9, size: 0x8, addend: 0x0, symName: __ZNSt3__16vectorIhNS_9allocatorIhEEEC2Ev, symObjAddr: 0xED10, symBinAddr: 0x10000F760, symSize: 0x20 }
  - { offset: 0x310F3, size: 0x8, addend: 0x0, symName: __ZNSt3__113__vector_baseIhNS_9allocatorIhEEEC2Ev, symObjAddr: 0xED30, symBinAddr: 0x10000F780, symSize: 0x300 }
  - { offset: 0x31120, size: 0x8, addend: 0x0, symName: __ZNSt3__120__vector_base_commonILb1EEC2Ev, symObjAddr: 0xF030, symBinAddr: 0x10000FA80, symSize: 0x10 }
  - { offset: 0x31150, size: 0x8, addend: 0x0, symName: __ZNSt3__117__compressed_pairIPhNS_9allocatorIhEEEC1IDnNS_18__default_init_tagEEEOT_OT0_, symObjAddr: 0xF040, symBinAddr: 0x10000FA90, symSize: 0x30 }
  - { offset: 0x311AA, size: 0x8, addend: 0x0, symName: __ZNSt3__117__compressed_pairIPhNS_9allocatorIhEEEC2IDnNS_18__default_init_tagEEEOT_OT0_, symObjAddr: 0xF070, symBinAddr: 0x10000FAC0, symSize: 0x40 }
  - { offset: 0x31204, size: 0x8, addend: 0x0, symName: __ZNSt3__122__compressed_pair_elemIPhLi0ELb0EEC2IDnvEEOT_, symObjAddr: 0xF0B0, symBinAddr: 0x10000FB00, symSize: 0x50 }
  - { offset: 0x31247, size: 0x8, addend: 0x0, symName: __ZNSt3__122__compressed_pair_elemINS_9allocatorIhEELi1ELb1EEC2ENS_18__default_init_tagE, symObjAddr: 0xF100, symBinAddr: 0x10000FB50, symSize: 0x20 }
  - { offset: 0x3127D, size: 0x8, addend: 0x0, symName: __ZNSt3__19allocatorIhEC2Ev, symObjAddr: 0xF120, symBinAddr: 0x10000FB70, symSize: 0x10 }
  - { offset: 0x312A7, size: 0x8, addend: 0x0, symName: __ZN2sf4FontD2Ev, symObjAddr: 0xF130, symBinAddr: 0x10000FB80, symSize: 0x50 }
  - { offset: 0x312D3, size: 0x8, addend: 0x0, symName: __ZNSt3__16vectorIhNS_9allocatorIhEEED1Ev, symObjAddr: 0xF180, symBinAddr: 0x10000FBD0, symSize: 0x20 }
  - { offset: 0x312FD, size: 0x8, addend: 0x0, symName: __ZNSt3__113unordered_mapIjN2sf4Font4PageENS_4hashIjEENS_8equal_toIjEENS_9allocatorINS_4pairIKjS3_EEEEED1Ev, symObjAddr: 0xF1A0, symBinAddr: 0x10000FBF0, symSize: 0x20 }
  - { offset: 0x31327, size: 0x8, addend: 0x0, symName: __ZN2sf4Font4InfoD1Ev, symObjAddr: 0xF1C0, symBinAddr: 0x10000FC10, symSize: 0x20 }
  - { offset: 0x31353, size: 0x8, addend: 0x0, symName: __ZNSt3__110shared_ptrIN2sf4Font11FontHandlesEED1Ev, symObjAddr: 0xF1E0, symBinAddr: 0x10000FC30, symSize: 0x20 }
  - { offset: 0x3137F, size: 0x8, addend: 0x0, symName: __ZNSt3__16vectorIhNS_9allocatorIhEEED2Ev, symObjAddr: 0xF200, symBinAddr: 0x10000FC50, symSize: 0x30 }
  - { offset: 0x313A9, size: 0x8, addend: 0x0, symName: __ZNKSt3__16vectorIhNS_9allocatorIhEEE17__annotate_deleteEv, symObjAddr: 0xF230, symBinAddr: 0x10000FC80, symSize: 0xC0 }
  - { offset: 0x313CF, size: 0x8, addend: 0x0, symName: __ZNSt3__113__vector_baseIhNS_9allocatorIhEEED2Ev, symObjAddr: 0xF2F0, symBinAddr: 0x10000FD40, symSize: 0xB0 }
  - { offset: 0x313FB, size: 0x8, addend: 0x0, symName: __ZNKSt3__16vectorIhNS_9allocatorIhEEE31__annotate_contiguous_containerEPKvS5_S5_S5_, symObjAddr: 0xF3A0, symBinAddr: 0x10000FDF0, symSize: 0x50 }
  - { offset: 0x3145D, size: 0x8, addend: 0x0, symName: __ZNKSt3__16vectorIhNS_9allocatorIhEEE4dataEv, symObjAddr: 0xF3F0, symBinAddr: 0x10000FE40, symSize: 0x50 }
  - { offset: 0x31483, size: 0x8, addend: 0x0, symName: __ZNKSt3__16vectorIhNS_9allocatorIhEEE8capacityEv, symObjAddr: 0xF440, symBinAddr: 0x10000FE90, symSize: 0x20 }
  - { offset: 0x314A9, size: 0x8, addend: 0x0, symName: __ZNKSt3__16vectorIhNS_9allocatorIhEEE4sizeEv, symObjAddr: 0xF460, symBinAddr: 0x10000FEB0, symSize: 0x90 }
  - { offset: 0x314CF, size: 0x8, addend: 0x0, symName: __ZNKSt3__113__vector_baseIhNS_9allocatorIhEEE8capacityEv, symObjAddr: 0xF500, symBinAddr: 0x10000FF50, symSize: 0x90 }
  - { offset: 0x314F5, size: 0x8, addend: 0x0, symName: __ZNKSt3__113__vector_baseIhNS_9allocatorIhEEE9__end_capEv, symObjAddr: 0xF590, symBinAddr: 0x10000FFE0, symSize: 0x20 }
  - { offset: 0x3151B, size: 0x8, addend: 0x0, symName: __ZNKSt3__117__compressed_pairIPhNS_9allocatorIhEEE5firstEv, symObjAddr: 0xF5B0, symBinAddr: 0x100010000, symSize: 0x20 }
  - { offset: 0x31541, size: 0x8, addend: 0x0, symName: __ZNKSt3__122__compressed_pair_elemIPhLi0ELb0EE5__getEv, symObjAddr: 0xF5D0, symBinAddr: 0x100010020, symSize: 0x10 }
  - { offset: 0x31567, size: 0x8, addend: 0x0, symName: __ZNSt3__113__vector_baseIhNS_9allocatorIhEEE5clearEv, symObjAddr: 0xF5E0, symBinAddr: 0x100010030, symSize: 0x50 }
  - { offset: 0x3158D, size: 0x8, addend: 0x0, symName: __ZNSt3__116allocator_traitsINS_9allocatorIhEEE10deallocateERS2_Phm, symObjAddr: 0xF630, symBinAddr: 0x100010080, symSize: 0x30 }
  - { offset: 0x315CF, size: 0x8, addend: 0x0, symName: __ZNSt3__113__vector_baseIhNS_9allocatorIhEEE7__allocEv, symObjAddr: 0xF660, symBinAddr: 0x1000100B0, symSize: 0x20 }
  - { offset: 0x315F5, size: 0x8, addend: 0x0, symName: __ZNSt3__113__vector_baseIhNS_9allocatorIhEEE17__destruct_at_endEPh, symObjAddr: 0xF680, symBinAddr: 0x1000100D0, symSize: 0xF0 }
  - { offset: 0x3163C, size: 0x8, addend: 0x0, symName: __ZNSt3__116allocator_traitsINS_9allocatorIhEEE7destroyIhEEvRS2_PT_, symObjAddr: 0xF770, symBinAddr: 0x1000101C0, symSize: 0x30 }
  - { offset: 0x31678, size: 0x8, addend: 0x0, symName: __ZNSt3__116allocator_traitsINS_9allocatorIhEEE9__destroyIhEEvNS_17integral_constantIbLb1EEERS2_PT_, symObjAddr: 0xF7A0, symBinAddr: 0x1000101F0, symSize: 0x30 }
  - { offset: 0x316C0, size: 0x8, addend: 0x0, symName: __ZNSt3__19allocatorIhE7destroyEPh, symObjAddr: 0xF7D0, symBinAddr: 0x100010220, symSize: 0x10 }
  - { offset: 0x316F5, size: 0x8, addend: 0x0, symName: __ZNSt3__19allocatorIhE10deallocateEPhm, symObjAddr: 0xF7E0, symBinAddr: 0x100010230, symSize: 0x50 }
  - { offset: 0x31739, size: 0x8, addend: 0x0, symName: __ZNSt3__117_DeallocateCaller33__do_deallocate_handle_size_alignEPvmm, symObjAddr: 0xF860, symBinAddr: 0x1000102B0, symSize: 0x60 }
  - { offset: 0x3179A, size: 0x8, addend: 0x0, symName: __ZNSt3__117_DeallocateCaller27__do_deallocate_handle_sizeEPvmSt11align_val_t, symObjAddr: 0xF8E0, symBinAddr: 0x100010330, symSize: 0x30 }
  - { offset: 0x317DC, size: 0x8, addend: 0x0, symName: __ZNSt3__117_DeallocateCaller27__do_deallocate_handle_sizeEPvm, symObjAddr: 0xF910, symBinAddr: 0x100010360, symSize: 0x20 }
  - { offset: 0x3180F, size: 0x8, addend: 0x0, symName: __ZNSt3__117_DeallocateCaller9__do_callISt11align_val_tEEvPvT_, symObjAddr: 0xF930, symBinAddr: 0x100010380, symSize: 0x30 }
  - { offset: 0x3184B, size: 0x8, addend: 0x0, symName: __ZNSt3__117_DeallocateCaller9__do_callEPv, symObjAddr: 0xF960, symBinAddr: 0x1000103B0, symSize: 0x20 }
  - { offset: 0x3186F, size: 0x8, addend: 0x0, symName: __ZNSt3__117__compressed_pairIPhNS_9allocatorIhEEE6secondEv, symObjAddr: 0xF980, symBinAddr: 0x1000103D0, symSize: 0x20 }
  - { offset: 0x31895, size: 0x8, addend: 0x0, symName: __ZNSt3__122__compressed_pair_elemINS_9allocatorIhEELi1ELb1EE5__getEv, symObjAddr: 0xF9A0, symBinAddr: 0x1000103F0, symSize: 0x10 }
  - { offset: 0x318BB, size: 0x8, addend: 0x0, symName: __ZNSt3__113unordered_mapIjN2sf4Font4PageENS_4hashIjEENS_8equal_toIjEENS_9allocatorINS_4pairIKjS3_EEEEED2Ev, symObjAddr: 0xF9B0, symBinAddr: 0x100010400, symSize: 0x20 }
  - { offset: 0x318E5, size: 0x8, addend: 0x0, symName: __ZNSt3__112__hash_tableINS_17__hash_value_typeIjN2sf4Font4PageEEENS_22__unordered_map_hasherIjS5_NS_4hashIjEELb1EEENS_21__unordered_map_equalIjS5_NS_8equal_toIjEELb1EEENS_9allocatorIS5_EEED1Ev, symObjAddr: 0xF9D0, symBinAddr: 0x100010420, symSize: 0x20 }
  - { offset: 0x31911, size: 0x8, addend: 0x0, symName: __ZNSt3__112__hash_tableINS_17__hash_value_typeIjN2sf4Font4PageEEENS_22__unordered_map_hasherIjS5_NS_4hashIjEELb1EEENS_21__unordered_map_equalIjS5_NS_8equal_toIjEELb1EEENS_9allocatorIS5_EEED2Ev, symObjAddr: 0xF9F0, symBinAddr: 0x100010440, symSize: 0x70 }
  - { offset: 0x3193D, size: 0x8, addend: 0x0, symName: __ZNSt3__112__hash_tableINS_17__hash_value_typeIjN2sf4Font4PageEEENS_22__unordered_map_hasherIjS5_NS_4hashIjEELb1EEENS_21__unordered_map_equalIjS5_NS_8equal_toIjEELb1EEENS_9allocatorIS5_EEE17__deallocate_nodeEPNS_16__hash_node_baseIPNS_11__hash_nodeIS5_PvEEEE, symObjAddr: 0xFA60, symBinAddr: 0x1000104B0, symSize: 0xE0 }
  - { offset: 0x319AB, size: 0x8, addend: 0x0, symName: __ZNSt3__117__compressed_pairINS_16__hash_node_baseIPNS_11__hash_nodeINS_17__hash_value_typeIjN2sf4Font4PageEEEPvEEEENS_9allocatorIS9_EEE5firstEv, symObjAddr: 0xFB40, symBinAddr: 0x100010590, symSize: 0x20 }
  - { offset: 0x319D1, size: 0x8, addend: 0x0, symName: __ZNSt3__110unique_ptrIA_PNS_16__hash_node_baseIPNS_11__hash_nodeINS_17__hash_value_typeIjN2sf4Font4PageEEEPvEEEENS_25__bucket_list_deallocatorINS_9allocatorISC_EEEEED1Ev, symObjAddr: 0xFB60, symBinAddr: 0x1000105B0, symSize: 0x20 }
  - { offset: 0x319FB, size: 0x8, addend: 0x0, symName: __ZNSt3__112__hash_tableINS_17__hash_value_typeIjN2sf4Font4PageEEENS_22__unordered_map_hasherIjS5_NS_4hashIjEELb1EEENS_21__unordered_map_equalIjS5_NS_8equal_toIjEELb1EEENS_9allocatorIS5_EEE12__node_allocEv, symObjAddr: 0xFB80, symBinAddr: 0x1000105D0, symSize: 0x20 }
  - { offset: 0x31A21, size: 0x8, addend: 0x0, symName: __ZNSt3__116__hash_node_baseIPNS_11__hash_nodeINS_17__hash_value_typeIjN2sf4Font4PageEEEPvEEE8__upcastEv, symObjAddr: 0xFBA0, symBinAddr: 0x1000105F0, symSize: 0x20 }
  - { offset: 0x31A5F, size: 0x8, addend: 0x0, symName: __ZNSt3__116allocator_traitsINS_9allocatorINS_11__hash_nodeINS_17__hash_value_typeIjN2sf4Font4PageEEEPvEEEEE7destroyINS_4pairIKjS6_EEEEvRSA_PT_, symObjAddr: 0xFBC0, symBinAddr: 0x100010610, symSize: 0x30 }
  - { offset: 0x31A9B, size: 0x8, addend: 0x0, symName: __ZNSt3__122__hash_key_value_typesINS_17__hash_value_typeIjN2sf4Font4PageEEEE9__get_ptrERS5_, symObjAddr: 0xFBF0, symBinAddr: 0x100010640, symSize: 0x20 }
  - { offset: 0x31ABF, size: 0x8, addend: 0x0, symName: __ZNSt3__116allocator_traitsINS_9allocatorINS_11__hash_nodeINS_17__hash_value_typeIjN2sf4Font4PageEEEPvEEEEE10deallocateERSA_PS9_m, symObjAddr: 0xFC10, symBinAddr: 0x100010660, symSize: 0x30 }
  - { offset: 0x31B01, size: 0x8, addend: 0x0, symName: __ZNSt3__117__compressed_pairINS_16__hash_node_baseIPNS_11__hash_nodeINS_17__hash_value_typeIjN2sf4Font4PageEEEPvEEEENS_9allocatorIS9_EEE6secondEv, symObjAddr: 0xFC40, symBinAddr: 0x100010690, symSize: 0x20 }
  - { offset: 0x31B27, size: 0x8, addend: 0x0, symName: __ZNSt3__122__compressed_pair_elemINS_9allocatorINS_11__hash_nodeINS_17__hash_value_typeIjN2sf4Font4PageEEEPvEEEELi1ELb1EE5__getEv, symObjAddr: 0xFC60, symBinAddr: 0x1000106B0, symSize: 0x10 }
  - { offset: 0x31B53, size: 0x8, addend: 0x0, symName: __ZNSt3__114pointer_traitsIPNS_16__hash_node_baseIPNS_11__hash_nodeINS_17__hash_value_typeIjN2sf4Font4PageEEEPvEEEEE10pointer_toERSB_, symObjAddr: 0xFC70, symBinAddr: 0x1000106C0, symSize: 0x10 }
  - { offset: 0x31B77, size: 0x8, addend: 0x0, symName: __ZNSt3__116allocator_traitsINS_9allocatorINS_11__hash_nodeINS_17__hash_value_typeIjN2sf4Font4PageEEEPvEEEEE9__destroyINS_4pairIKjS6_EEEEvNS_17integral_constantIbLb0EEERSA_PT_, symObjAddr: 0xFC80, symBinAddr: 0x1000106D0, symSize: 0x20 }
  - { offset: 0x31BBC, size: 0x8, addend: 0x0, symName: __ZNSt3__14pairIKjN2sf4Font4PageEED1Ev, symObjAddr: 0xFCA0, symBinAddr: 0x1000106F0, symSize: 0x20 }
  - { offset: 0x31BE9, size: 0x8, addend: 0x0, symName: __ZNSt3__14pairIKjN2sf4Font4PageEED2Ev, symObjAddr: 0xFCC0, symBinAddr: 0x100010710, symSize: 0x20 }
  - { offset: 0x31C16, size: 0x8, addend: 0x0, symName: __ZN2sf4Font4PageD1Ev, symObjAddr: 0xFCE0, symBinAddr: 0x100010730, symSize: 0x20 }
  - { offset: 0x31C43, size: 0x8, addend: 0x0, symName: __ZN2sf4Font4PageD2Ev, symObjAddr: 0xFD00, symBinAddr: 0x100010750, symSize: 0x40 }
  - { offset: 0x31C70, size: 0x8, addend: 0x0, symName: __ZNSt3__16vectorIN2sf4Font3RowENS_9allocatorIS3_EEED1Ev, symObjAddr: 0xFD40, symBinAddr: 0x100010790, symSize: 0x20 }
  - { offset: 0x31C9A, size: 0x8, addend: 0x0, symName: __ZNSt3__113unordered_mapIyN2sf5GlyphENS_4hashIyEENS_8equal_toIyEENS_9allocatorINS_4pairIKyS2_EEEEED1Ev, symObjAddr: 0xFD60, symBinAddr: 0x1000107B0, symSize: 0x20 }
  - { offset: 0x31CC4, size: 0x8, addend: 0x0, symName: __ZNSt3__16vectorIN2sf4Font3RowENS_9allocatorIS3_EEED2Ev, symObjAddr: 0xFD80, symBinAddr: 0x1000107D0, symSize: 0x30 }
  - { offset: 0x31CEE, size: 0x8, addend: 0x0, symName: __ZNKSt3__16vectorIN2sf4Font3RowENS_9allocatorIS3_EEE17__annotate_deleteEv, symObjAddr: 0xFDB0, symBinAddr: 0x100010800, symSize: 0xD0 }
  - { offset: 0x31D14, size: 0x8, addend: 0x0, symName: __ZNSt3__113__vector_baseIN2sf4Font3RowENS_9allocatorIS3_EEED2Ev, symObjAddr: 0xFE80, symBinAddr: 0x1000108D0, symSize: 0xB0 }
  - { offset: 0x31D40, size: 0x8, addend: 0x0, symName: __ZNKSt3__16vectorIN2sf4Font3RowENS_9allocatorIS3_EEE31__annotate_contiguous_containerEPKvS8_S8_S8_, symObjAddr: 0xFF30, symBinAddr: 0x100010980, symSize: 0x50 }
  - { offset: 0x31DA2, size: 0x8, addend: 0x0, symName: __ZNKSt3__16vectorIN2sf4Font3RowENS_9allocatorIS3_EEE4dataEv, symObjAddr: 0xFF80, symBinAddr: 0x1000109D0, symSize: 0x50 }
  - { offset: 0x31DC8, size: 0x8, addend: 0x0, symName: __ZNKSt3__16vectorIN2sf4Font3RowENS_9allocatorIS3_EEE8capacityEv, symObjAddr: 0xFFD0, symBinAddr: 0x100010A20, symSize: 0x20 }
  - { offset: 0x31DEE, size: 0x8, addend: 0x0, symName: __ZNKSt3__16vectorIN2sf4Font3RowENS_9allocatorIS3_EEE4sizeEv, symObjAddr: 0xFFF0, symBinAddr: 0x100010A40, symSize: 0xA0 }
  - { offset: 0x31E14, size: 0x8, addend: 0x0, symName: __ZNKSt3__113__vector_baseIN2sf4Font3RowENS_9allocatorIS3_EEE8capacityEv, symObjAddr: 0x100A0, symBinAddr: 0x100010AF0, symSize: 0xA0 }
  - { offset: 0x31E3A, size: 0x8, addend: 0x0, symName: __ZNKSt3__113__vector_baseIN2sf4Font3RowENS_9allocatorIS3_EEE9__end_capEv, symObjAddr: 0x10140, symBinAddr: 0x100010B90, symSize: 0x20 }
  - { offset: 0x31E60, size: 0x8, addend: 0x0, symName: __ZNKSt3__117__compressed_pairIPN2sf4Font3RowENS_9allocatorIS3_EEE5firstEv, symObjAddr: 0x10160, symBinAddr: 0x100010BB0, symSize: 0x20 }
  - { offset: 0x31E86, size: 0x8, addend: 0x0, symName: __ZNKSt3__122__compressed_pair_elemIPN2sf4Font3RowELi0ELb0EE5__getEv, symObjAddr: 0x10180, symBinAddr: 0x100010BD0, symSize: 0x10 }
  - { offset: 0x31EAC, size: 0x8, addend: 0x0, symName: __ZNSt3__113__vector_baseIN2sf4Font3RowENS_9allocatorIS3_EEE5clearEv, symObjAddr: 0x10190, symBinAddr: 0x100010BE0, symSize: 0x50 }
  - { offset: 0x31ED2, size: 0x8, addend: 0x0, symName: __ZNSt3__116allocator_traitsINS_9allocatorIN2sf4Font3RowEEEE10deallocateERS5_PS4_m, symObjAddr: 0x101E0, symBinAddr: 0x100010C30, symSize: 0x30 }
  - { offset: 0x31F14, size: 0x8, addend: 0x0, symName: __ZNSt3__113__vector_baseIN2sf4Font3RowENS_9allocatorIS3_EEE7__allocEv, symObjAddr: 0x10210, symBinAddr: 0x100010C60, symSize: 0x20 }
  - { offset: 0x31F3A, size: 0x8, addend: 0x0, symName: __ZNSt3__113__vector_baseIN2sf4Font3RowENS_9allocatorIS3_EEE17__destruct_at_endEPS3_, symObjAddr: 0x10230, symBinAddr: 0x100010C80, symSize: 0xF0 }
  - { offset: 0x31F81, size: 0x8, addend: 0x0, symName: __ZNSt3__116allocator_traitsINS_9allocatorIN2sf4Font3RowEEEE7destroyIS4_EEvRS5_PT_, symObjAddr: 0x10320, symBinAddr: 0x100010D70, symSize: 0x30 }
  - { offset: 0x31FBD, size: 0x8, addend: 0x0, symName: __ZNSt3__116allocator_traitsINS_9allocatorIN2sf4Font3RowEEEE9__destroyIS4_EEvNS_17integral_constantIbLb1EEERS5_PT_, symObjAddr: 0x10350, symBinAddr: 0x100010DA0, symSize: 0x30 }
  - { offset: 0x32005, size: 0x8, addend: 0x0, symName: __ZNSt3__19allocatorIN2sf4Font3RowEE7destroyEPS3_, symObjAddr: 0x10380, symBinAddr: 0x100010DD0, symSize: 0x10 }
  - { offset: 0x3203A, size: 0x8, addend: 0x0, symName: __ZNSt3__19allocatorIN2sf4Font3RowEE10deallocateEPS3_m, symObjAddr: 0x10390, symBinAddr: 0x100010DE0, symSize: 0x50 }
  - { offset: 0x3207E, size: 0x8, addend: 0x0, symName: __ZNSt3__117__compressed_pairIPN2sf4Font3RowENS_9allocatorIS3_EEE6secondEv, symObjAddr: 0x103E0, symBinAddr: 0x100010E30, symSize: 0x20 }
  - { offset: 0x320A4, size: 0x8, addend: 0x0, symName: __ZNSt3__122__compressed_pair_elemINS_9allocatorIN2sf4Font3RowEEELi1ELb1EE5__getEv, symObjAddr: 0x10400, symBinAddr: 0x100010E50, symSize: 0x10 }
  - { offset: 0x320CA, size: 0x8, addend: 0x0, symName: __ZNSt3__113unordered_mapIyN2sf5GlyphENS_4hashIyEENS_8equal_toIyEENS_9allocatorINS_4pairIKyS2_EEEEED2Ev, symObjAddr: 0x10410, symBinAddr: 0x100010E60, symSize: 0x20 }
  - { offset: 0x320F4, size: 0x8, addend: 0x0, symName: __ZNSt3__112__hash_tableINS_17__hash_value_typeIyN2sf5GlyphEEENS_22__unordered_map_hasherIyS4_NS_4hashIyEELb1EEENS_21__unordered_map_equalIyS4_NS_8equal_toIyEELb1EEENS_9allocatorIS4_EEED1Ev, symObjAddr: 0x10430, symBinAddr: 0x100010E80, symSize: 0x20 }
  - { offset: 0x32120, size: 0x8, addend: 0x0, symName: __ZNSt3__112__hash_tableINS_17__hash_value_typeIyN2sf5GlyphEEENS_22__unordered_map_hasherIyS4_NS_4hashIyEELb1EEENS_21__unordered_map_equalIyS4_NS_8equal_toIyEELb1EEENS_9allocatorIS4_EEED2Ev, symObjAddr: 0x10450, symBinAddr: 0x100010EA0, symSize: 0x70 }
  - { offset: 0x3214C, size: 0x8, addend: 0x0, symName: __ZNSt3__112__hash_tableINS_17__hash_value_typeIyN2sf5GlyphEEENS_22__unordered_map_hasherIyS4_NS_4hashIyEELb1EEENS_21__unordered_map_equalIyS4_NS_8equal_toIyEELb1EEENS_9allocatorIS4_EEE17__deallocate_nodeEPNS_16__hash_node_baseIPNS_11__hash_nodeIS4_PvEEEE, symObjAddr: 0x104C0, symBinAddr: 0x100010F10, symSize: 0xE0 }
  - { offset: 0x321BA, size: 0x8, addend: 0x0, symName: __ZNSt3__117__compressed_pairINS_16__hash_node_baseIPNS_11__hash_nodeINS_17__hash_value_typeIyN2sf5GlyphEEEPvEEEENS_9allocatorIS8_EEE5firstEv, symObjAddr: 0x105A0, symBinAddr: 0x100010FF0, symSize: 0x20 }
  - { offset: 0x321E0, size: 0x8, addend: 0x0, symName: __ZNSt3__110unique_ptrIA_PNS_16__hash_node_baseIPNS_11__hash_nodeINS_17__hash_value_typeIyN2sf5GlyphEEEPvEEEENS_25__bucket_list_deallocatorINS_9allocatorISB_EEEEED1Ev, symObjAddr: 0x105C0, symBinAddr: 0x100011010, symSize: 0x20 }
  - { offset: 0x3220A, size: 0x8, addend: 0x0, symName: __ZNSt3__112__hash_tableINS_17__hash_value_typeIyN2sf5GlyphEEENS_22__unordered_map_hasherIyS4_NS_4hashIyEELb1EEENS_21__unordered_map_equalIyS4_NS_8equal_toIyEELb1EEENS_9allocatorIS4_EEE12__node_allocEv, symObjAddr: 0x105E0, symBinAddr: 0x100011030, symSize: 0x20 }
  - { offset: 0x32230, size: 0x8, addend: 0x0, symName: __ZNSt3__116__hash_node_baseIPNS_11__hash_nodeINS_17__hash_value_typeIyN2sf5GlyphEEEPvEEE8__upcastEv, symObjAddr: 0x10600, symBinAddr: 0x100011050, symSize: 0x20 }
  - { offset: 0x3226E, size: 0x8, addend: 0x0, symName: __ZNSt3__116allocator_traitsINS_9allocatorINS_11__hash_nodeINS_17__hash_value_typeIyN2sf5GlyphEEEPvEEEEE7destroyINS_4pairIKyS5_EEEEvRS9_PT_, symObjAddr: 0x10620, symBinAddr: 0x100011070, symSize: 0x30 }
  - { offset: 0x322AA, size: 0x8, addend: 0x0, symName: __ZNSt3__122__hash_key_value_typesINS_17__hash_value_typeIyN2sf5GlyphEEEE9__get_ptrERS4_, symObjAddr: 0x10650, symBinAddr: 0x1000110A0, symSize: 0x20 }
  - { offset: 0x322CE, size: 0x8, addend: 0x0, symName: __ZNSt3__116allocator_traitsINS_9allocatorINS_11__hash_nodeINS_17__hash_value_typeIyN2sf5GlyphEEEPvEEEEE10deallocateERS9_PS8_m, symObjAddr: 0x10670, symBinAddr: 0x1000110C0, symSize: 0x30 }
  - { offset: 0x32310, size: 0x8, addend: 0x0, symName: __ZNSt3__117__compressed_pairINS_16__hash_node_baseIPNS_11__hash_nodeINS_17__hash_value_typeIyN2sf5GlyphEEEPvEEEENS_9allocatorIS8_EEE6secondEv, symObjAddr: 0x106A0, symBinAddr: 0x1000110F0, symSize: 0x20 }
  - { offset: 0x32336, size: 0x8, addend: 0x0, symName: __ZNSt3__122__compressed_pair_elemINS_9allocatorINS_11__hash_nodeINS_17__hash_value_typeIyN2sf5GlyphEEEPvEEEELi1ELb1EE5__getEv, symObjAddr: 0x106C0, symBinAddr: 0x100011110, symSize: 0x10 }
  - { offset: 0x32362, size: 0x8, addend: 0x0, symName: __ZNSt3__114pointer_traitsIPNS_16__hash_node_baseIPNS_11__hash_nodeINS_17__hash_value_typeIyN2sf5GlyphEEEPvEEEEE10pointer_toERSA_, symObjAddr: 0x106D0, symBinAddr: 0x100011120, symSize: 0x10 }
  - { offset: 0x32386, size: 0x8, addend: 0x0, symName: __ZNSt3__116allocator_traitsINS_9allocatorINS_11__hash_nodeINS_17__hash_value_typeIyN2sf5GlyphEEEPvEEEEE9__destroyINS_4pairIKyS5_EEEEvNS_17integral_constantIbLb0EEERS9_PT_, symObjAddr: 0x106E0, symBinAddr: 0x100011130, symSize: 0x10 }
  - { offset: 0x323CB, size: 0x8, addend: 0x0, symName: __ZNSt3__117__hash_value_typeIyN2sf5GlyphEE11__get_valueEv, symObjAddr: 0x106F0, symBinAddr: 0x100011140, symSize: 0x20 }
  - { offset: 0x323F1, size: 0x8, addend: 0x0, symName: __ZNSt3__19allocatorINS_11__hash_nodeINS_17__hash_value_typeIyN2sf5GlyphEEEPvEEE10deallocateEPS7_m, symObjAddr: 0x10740, symBinAddr: 0x100011190, symSize: 0x50 }
  - { offset: 0x32435, size: 0x8, addend: 0x0, symName: __ZNSt3__122__compressed_pair_elemINS_16__hash_node_baseIPNS_11__hash_nodeINS_17__hash_value_typeIyN2sf5GlyphEEEPvEEEELi0ELb0EE5__getEv, symObjAddr: 0x10790, symBinAddr: 0x1000111E0, symSize: 0x10 }
  - { offset: 0x3245B, size: 0x8, addend: 0x0, symName: __ZNSt3__110unique_ptrIA_PNS_16__hash_node_baseIPNS_11__hash_nodeINS_17__hash_value_typeIyN2sf5GlyphEEEPvEEEENS_25__bucket_list_deallocatorINS_9allocatorISB_EEEEED2Ev, symObjAddr: 0x107A0, symBinAddr: 0x1000111F0, symSize: 0x20 }
  - { offset: 0x32485, size: 0x8, addend: 0x0, symName: __ZNSt3__110unique_ptrIA_PNS_16__hash_node_baseIPNS_11__hash_nodeINS_17__hash_value_typeIyN2sf5GlyphEEEPvEEEENS_25__bucket_list_deallocatorINS_9allocatorISB_EEEEE5resetEDn, symObjAddr: 0x107C0, symBinAddr: 0x100011210, symSize: 0xC0 }
  - { offset: 0x324C7, size: 0x8, addend: 0x0, symName: __ZNSt3__117__compressed_pairIPPNS_16__hash_node_baseIPNS_11__hash_nodeINS_17__hash_value_typeIyN2sf5GlyphEEEPvEEEENS_25__bucket_list_deallocatorINS_9allocatorISB_EEEEE5firstEv, symObjAddr: 0x10880, symBinAddr: 0x1000112D0, symSize: 0x20 }
  - { offset: 0x324ED, size: 0x8, addend: 0x0, symName: __ZNSt3__117__compressed_pairIPPNS_16__hash_node_baseIPNS_11__hash_nodeINS_17__hash_value_typeIyN2sf5GlyphEEEPvEEEENS_25__bucket_list_deallocatorINS_9allocatorISB_EEEEE6secondEv, symObjAddr: 0x108A0, symBinAddr: 0x1000112F0, symSize: 0x20 }
  - { offset: 0x32513, size: 0x8, addend: 0x0, symName: __ZNSt3__125__bucket_list_deallocatorINS_9allocatorIPNS_16__hash_node_baseIPNS_11__hash_nodeINS_17__hash_value_typeIyN2sf5GlyphEEEPvEEEEEEEclEPSC_, symObjAddr: 0x108C0, symBinAddr: 0x100011310, symSize: 0x80 }
  - { offset: 0x32548, size: 0x8, addend: 0x0, symName: __ZNSt3__122__compressed_pair_elemIPPNS_16__hash_node_baseIPNS_11__hash_nodeINS_17__hash_value_typeIyN2sf5GlyphEEEPvEEEELi0ELb0EE5__getEv, symObjAddr: 0x10940, symBinAddr: 0x100011390, symSize: 0x10 }
  - { offset: 0x3256E, size: 0x8, addend: 0x0, symName: __ZNSt3__122__compressed_pair_elemINS_25__bucket_list_deallocatorINS_9allocatorIPNS_16__hash_node_baseIPNS_11__hash_nodeINS_17__hash_value_typeIyN2sf5GlyphEEEPvEEEEEEEELi1ELb0EE5__getEv, symObjAddr: 0x10950, symBinAddr: 0x1000113A0, symSize: 0x10 }
  - { offset: 0x32594, size: 0x8, addend: 0x0, symName: __ZNSt3__116allocator_traitsINS_9allocatorIPNS_16__hash_node_baseIPNS_11__hash_nodeINS_17__hash_value_typeIyN2sf5GlyphEEEPvEEEEEEE10deallocateERSD_PSC_m, symObjAddr: 0x10960, symBinAddr: 0x1000113B0, symSize: 0x30 }
  - { offset: 0x325D6, size: 0x8, addend: 0x0, symName: __ZNSt3__125__bucket_list_deallocatorINS_9allocatorIPNS_16__hash_node_baseIPNS_11__hash_nodeINS_17__hash_value_typeIyN2sf5GlyphEEEPvEEEEEEE7__allocEv, symObjAddr: 0x10990, symBinAddr: 0x1000113E0, symSize: 0x20 }
  - { offset: 0x325FC, size: 0x8, addend: 0x0, symName: __ZNSt3__125__bucket_list_deallocatorINS_9allocatorIPNS_16__hash_node_baseIPNS_11__hash_nodeINS_17__hash_value_typeIyN2sf5GlyphEEEPvEEEEEEE4sizeEv, symObjAddr: 0x109B0, symBinAddr: 0x100011400, symSize: 0x20 }
  - { offset: 0x32622, size: 0x8, addend: 0x0, symName: __ZNSt3__19allocatorIPNS_16__hash_node_baseIPNS_11__hash_nodeINS_17__hash_value_typeIyN2sf5GlyphEEEPvEEEEE10deallocateEPSB_m, symObjAddr: 0x109D0, symBinAddr: 0x100011420, symSize: 0x50 }
  - { offset: 0x32666, size: 0x8, addend: 0x0, symName: __ZNSt3__117__compressed_pairImNS_9allocatorIPNS_16__hash_node_baseIPNS_11__hash_nodeINS_17__hash_value_typeIyN2sf5GlyphEEEPvEEEEEEE6secondEv, symObjAddr: 0x10A20, symBinAddr: 0x100011470, symSize: 0x20 }
  - { offset: 0x3268C, size: 0x8, addend: 0x0, symName: __ZNSt3__122__compressed_pair_elemINS_9allocatorIPNS_16__hash_node_baseIPNS_11__hash_nodeINS_17__hash_value_typeIyN2sf5GlyphEEEPvEEEEEELi1ELb1EE5__getEv, symObjAddr: 0x10A40, symBinAddr: 0x100011490, symSize: 0x10 }
  - { offset: 0x326B2, size: 0x8, addend: 0x0, symName: __ZNSt3__117__compressed_pairImNS_9allocatorIPNS_16__hash_node_baseIPNS_11__hash_nodeINS_17__hash_value_typeIyN2sf5GlyphEEEPvEEEEEEE5firstEv, symObjAddr: 0x10A50, symBinAddr: 0x1000114A0, symSize: 0x20 }
  - { offset: 0x326D8, size: 0x8, addend: 0x0, symName: __ZNSt3__122__compressed_pair_elemImLi0ELb0EE5__getEv, symObjAddr: 0x10A70, symBinAddr: 0x1000114C0, symSize: 0x10 }
  - { offset: 0x326FE, size: 0x8, addend: 0x0, symName: __ZNSt3__117__hash_value_typeIjN2sf4Font4PageEE11__get_valueEv, symObjAddr: 0x10A80, symBinAddr: 0x1000114D0, symSize: 0x20 }
  - { offset: 0x32724, size: 0x8, addend: 0x0, symName: __ZNSt3__19allocatorINS_11__hash_nodeINS_17__hash_value_typeIjN2sf4Font4PageEEEPvEEE10deallocateEPS8_m, symObjAddr: 0x10AD0, symBinAddr: 0x100011520, symSize: 0x50 }
  - { offset: 0x32768, size: 0x8, addend: 0x0, symName: __ZNSt3__122__compressed_pair_elemINS_16__hash_node_baseIPNS_11__hash_nodeINS_17__hash_value_typeIjN2sf4Font4PageEEEPvEEEELi0ELb0EE5__getEv, symObjAddr: 0x10B20, symBinAddr: 0x100011570, symSize: 0x10 }
  - { offset: 0x3278E, size: 0x8, addend: 0x0, symName: __ZNSt3__110unique_ptrIA_PNS_16__hash_node_baseIPNS_11__hash_nodeINS_17__hash_value_typeIjN2sf4Font4PageEEEPvEEEENS_25__bucket_list_deallocatorINS_9allocatorISC_EEEEED2Ev, symObjAddr: 0x10B30, symBinAddr: 0x100011580, symSize: 0x20 }
  - { offset: 0x327B8, size: 0x8, addend: 0x0, symName: __ZNSt3__110unique_ptrIA_PNS_16__hash_node_baseIPNS_11__hash_nodeINS_17__hash_value_typeIjN2sf4Font4PageEEEPvEEEENS_25__bucket_list_deallocatorINS_9allocatorISC_EEEEE5resetEDn, symObjAddr: 0x10B50, symBinAddr: 0x1000115A0, symSize: 0xC0 }
  - { offset: 0x327FA, size: 0x8, addend: 0x0, symName: __ZNSt3__117__compressed_pairIPPNS_16__hash_node_baseIPNS_11__hash_nodeINS_17__hash_value_typeIjN2sf4Font4PageEEEPvEEEENS_25__bucket_list_deallocatorINS_9allocatorISC_EEEEE5firstEv, symObjAddr: 0x10C10, symBinAddr: 0x100011660, symSize: 0x20 }
  - { offset: 0x32820, size: 0x8, addend: 0x0, symName: __ZNSt3__117__compressed_pairIPPNS_16__hash_node_baseIPNS_11__hash_nodeINS_17__hash_value_typeIjN2sf4Font4PageEEEPvEEEENS_25__bucket_list_deallocatorINS_9allocatorISC_EEEEE6secondEv, symObjAddr: 0x10C30, symBinAddr: 0x100011680, symSize: 0x20 }
  - { offset: 0x32846, size: 0x8, addend: 0x0, symName: __ZNSt3__125__bucket_list_deallocatorINS_9allocatorIPNS_16__hash_node_baseIPNS_11__hash_nodeINS_17__hash_value_typeIjN2sf4Font4PageEEEPvEEEEEEEclEPSD_, symObjAddr: 0x10C50, symBinAddr: 0x1000116A0, symSize: 0x80 }
  - { offset: 0x3287B, size: 0x8, addend: 0x0, symName: __ZNSt3__122__compressed_pair_elemIPPNS_16__hash_node_baseIPNS_11__hash_nodeINS_17__hash_value_typeIjN2sf4Font4PageEEEPvEEEELi0ELb0EE5__getEv, symObjAddr: 0x10CD0, symBinAddr: 0x100011720, symSize: 0x10 }
  - { offset: 0x328A1, size: 0x8, addend: 0x0, symName: __ZNSt3__122__compressed_pair_elemINS_25__bucket_list_deallocatorINS_9allocatorIPNS_16__hash_node_baseIPNS_11__hash_nodeINS_17__hash_value_typeIjN2sf4Font4PageEEEPvEEEEEEEELi1ELb0EE5__getEv, symObjAddr: 0x10CE0, symBinAddr: 0x100011730, symSize: 0x10 }
  - { offset: 0x328C7, size: 0x8, addend: 0x0, symName: __ZNSt3__116allocator_traitsINS_9allocatorIPNS_16__hash_node_baseIPNS_11__hash_nodeINS_17__hash_value_typeIjN2sf4Font4PageEEEPvEEEEEEE10deallocateERSE_PSD_m, symObjAddr: 0x10CF0, symBinAddr: 0x100011740, symSize: 0x30 }
  - { offset: 0x32909, size: 0x8, addend: 0x0, symName: __ZNSt3__125__bucket_list_deallocatorINS_9allocatorIPNS_16__hash_node_baseIPNS_11__hash_nodeINS_17__hash_value_typeIjN2sf4Font4PageEEEPvEEEEEEE7__allocEv, symObjAddr: 0x10D20, symBinAddr: 0x100011770, symSize: 0x20 }
  - { offset: 0x3292F, size: 0x8, addend: 0x0, symName: __ZNSt3__125__bucket_list_deallocatorINS_9allocatorIPNS_16__hash_node_baseIPNS_11__hash_nodeINS_17__hash_value_typeIjN2sf4Font4PageEEEPvEEEEEEE4sizeEv, symObjAddr: 0x10D40, symBinAddr: 0x100011790, symSize: 0x20 }
  - { offset: 0x32955, size: 0x8, addend: 0x0, symName: __ZNSt3__19allocatorIPNS_16__hash_node_baseIPNS_11__hash_nodeINS_17__hash_value_typeIjN2sf4Font4PageEEEPvEEEEE10deallocateEPSC_m, symObjAddr: 0x10D60, symBinAddr: 0x1000117B0, symSize: 0x50 }
  - { offset: 0x32999, size: 0x8, addend: 0x0, symName: __ZNSt3__117__compressed_pairImNS_9allocatorIPNS_16__hash_node_baseIPNS_11__hash_nodeINS_17__hash_value_typeIjN2sf4Font4PageEEEPvEEEEEEE6secondEv, symObjAddr: 0x10DB0, symBinAddr: 0x100011800, symSize: 0x20 }
  - { offset: 0x329BF, size: 0x8, addend: 0x0, symName: __ZNSt3__122__compressed_pair_elemINS_9allocatorIPNS_16__hash_node_baseIPNS_11__hash_nodeINS_17__hash_value_typeIjN2sf4Font4PageEEEPvEEEEEELi1ELb1EE5__getEv, symObjAddr: 0x10DD0, symBinAddr: 0x100011820, symSize: 0x10 }
  - { offset: 0x329E5, size: 0x8, addend: 0x0, symName: __ZNSt3__117__compressed_pairImNS_9allocatorIPNS_16__hash_node_baseIPNS_11__hash_nodeINS_17__hash_value_typeIjN2sf4Font4PageEEEPvEEEEEEE5firstEv, symObjAddr: 0x10DE0, symBinAddr: 0x100011830, symSize: 0x20 }
  - { offset: 0x32A0B, size: 0x8, addend: 0x0, symName: __ZN2sf4Font4InfoD2Ev, symObjAddr: 0x10E00, symBinAddr: 0x100011850, symSize: 0x20 }
  - { offset: 0x32A37, size: 0x8, addend: 0x0, symName: __ZNSt3__110shared_ptrIN2sf4Font11FontHandlesEED2Ev, symObjAddr: 0x10E20, symBinAddr: 0x100011870, symSize: 0xA0 }
  - { offset: 0x32A63, size: 0x8, addend: 0x0, symName: __ZNSt3__119__shared_weak_count16__release_sharedEv, symObjAddr: 0x10EC0, symBinAddr: 0x100011910, symSize: 0x40 }
  - { offset: 0x32A89, size: 0x8, addend: 0x0, symName: __ZNSt3__114__shared_count16__release_sharedEv, symObjAddr: 0x10F00, symBinAddr: 0x100011950, symSize: 0xB0 }
  - { offset: 0x32ABB, size: 0x8, addend: 0x0, symName: __ZNKSt3__16__lessIiiEclERKiS3_, symObjAddr: 0x11190, symBinAddr: 0x100011BE0, symSize: 0xD0 }
  - { offset: 0x32AFF, size: 0x8, addend: 0x0, symName: __ZNKSt3__111__wrap_iterIPK4DiskE4baseEv, symObjAddr: 0x112A0, symBinAddr: 0x100011CF0, symSize: 0x50 }
  - { offset: 0x32B25, size: 0x8, addend: 0x0, symName: __ZN2sf7Vector2IfEC2Eff, symObjAddr: 0x112F0, symBinAddr: 0x100011D40, symSize: 0xE0 }
  - { offset: 0x32B6F, size: 0x8, addend: 0x0, symName: __ZNSt3__18ios_base4setfEjj, symObjAddr: 0x113D0, symBinAddr: 0x100011E20, symSize: 0xE0 }
  - { offset: 0x32BC5, size: 0x8, addend: 0x0, symName: __ZNSt3__18ios_base6unsetfEj, symObjAddr: 0x114B0, symBinAddr: 0x100011F00, symSize: 0x80 }
  - { offset: 0x32BFC, size: 0x8, addend: 0x0, symName: __ZNSt3__18__iom_t5C1Ei, symObjAddr: 0x11530, symBinAddr: 0x100011F80, symSize: 0x30 }
  - { offset: 0x32C35, size: 0x8, addend: 0x0, symName: __ZNSt3__18__iom_t5C2Ei, symObjAddr: 0x11560, symBinAddr: 0x100011FB0, symSize: 0x70 }
  - { offset: 0x32C6E, size: 0x8, addend: 0x0, symName: __ZN2sf6StringD2Ev, symObjAddr: 0x115D0, symBinAddr: 0x100012020, symSize: 0x20 }
  - { offset: 0x32C9A, size: 0x8, addend: 0x0, symName: __ZNSt3__112basic_stringIDiNS_11char_traitsIDiEENS_9allocatorIDiEEED1Ev, symObjAddr: 0x115F0, symBinAddr: 0x100012040, symSize: 0x20 }
  - { offset: 0x32CC6, size: 0x8, addend: 0x0, symName: __ZNSt3__112basic_stringIDiNS_11char_traitsIDiEENS_9allocatorIDiEEED2Ev, symObjAddr: 0x11610, symBinAddr: 0x100012060, symSize: 0x60 }
  - { offset: 0x32CF2, size: 0x8, addend: 0x0, symName: __ZNKSt3__112basic_stringIDiNS_11char_traitsIDiEENS_9allocatorIDiEEE9__is_longEv, symObjAddr: 0x11670, symBinAddr: 0x1000120C0, symSize: 0x80 }
  - { offset: 0x32D18, size: 0x8, addend: 0x0, symName: __ZNSt3__116allocator_traitsINS_9allocatorIDiEEE10deallocateERS2_PDim, symObjAddr: 0x116F0, symBinAddr: 0x100012140, symSize: 0x30 }
  - { offset: 0x32D5A, size: 0x8, addend: 0x0, symName: __ZNSt3__112basic_stringIDiNS_11char_traitsIDiEENS_9allocatorIDiEEE7__allocEv, symObjAddr: 0x11720, symBinAddr: 0x100012170, symSize: 0x20 }
  - { offset: 0x32D80, size: 0x8, addend: 0x0, symName: __ZNSt3__112basic_stringIDiNS_11char_traitsIDiEENS_9allocatorIDiEEE18__get_long_pointerEv, symObjAddr: 0x11740, symBinAddr: 0x100012190, symSize: 0x50 }
  - { offset: 0x32DA6, size: 0x8, addend: 0x0, symName: __ZNKSt3__112basic_stringIDiNS_11char_traitsIDiEENS_9allocatorIDiEEE14__get_long_capEv, symObjAddr: 0x11790, symBinAddr: 0x1000121E0, symSize: 0x50 }
  - { offset: 0x32DCC, size: 0x8, addend: 0x0, symName: __ZNKSt3__117__compressed_pairINS_12basic_stringIDiNS_11char_traitsIDiEENS_9allocatorIDiEEE5__repES5_E5firstEv, symObjAddr: 0x117E0, symBinAddr: 0x100012230, symSize: 0x20 }
  - { offset: 0x32DF2, size: 0x8, addend: 0x0, symName: __ZNKSt3__122__compressed_pair_elemINS_12basic_stringIDiNS_11char_traitsIDiEENS_9allocatorIDiEEE5__repELi0ELb0EE5__getEv, symObjAddr: 0x11800, symBinAddr: 0x100012250, symSize: 0x10 }
  - { offset: 0x32E18, size: 0x8, addend: 0x0, symName: __ZNSt3__19allocatorIDiE10deallocateEPDim, symObjAddr: 0x11810, symBinAddr: 0x100012260, symSize: 0x50 }
  - { offset: 0x32E5C, size: 0x8, addend: 0x0, symName: __ZNSt3__117__compressed_pairINS_12basic_stringIDiNS_11char_traitsIDiEENS_9allocatorIDiEEE5__repES5_E6secondEv, symObjAddr: 0x11860, symBinAddr: 0x1000122B0, symSize: 0x20 }
  - { offset: 0x32E82, size: 0x8, addend: 0x0, symName: __ZNSt3__122__compressed_pair_elemINS_9allocatorIDiEELi1ELb1EE5__getEv, symObjAddr: 0x11880, symBinAddr: 0x1000122D0, symSize: 0x10 }
  - { offset: 0x32EA8, size: 0x8, addend: 0x0, symName: __ZNSt3__117__compressed_pairINS_12basic_stringIDiNS_11char_traitsIDiEENS_9allocatorIDiEEE5__repES5_E5firstEv, symObjAddr: 0x11890, symBinAddr: 0x1000122E0, symSize: 0x20 }
  - { offset: 0x32ECE, size: 0x8, addend: 0x0, symName: __ZNSt3__122__compressed_pair_elemINS_12basic_stringIDiNS_11char_traitsIDiEENS_9allocatorIDiEEE5__repELi0ELb0EE5__getEv, symObjAddr: 0x118B0, symBinAddr: 0x100012300, symSize: 0x10 }
  - { offset: 0x32EF4, size: 0x8, addend: 0x0, symName: __ZN2sf4TextD2Ev, symObjAddr: 0x118C0, symBinAddr: 0x100012310, symSize: 0xE0 }
  - { offset: 0x32F20, size: 0x8, addend: 0x0, symName: __ZThn8_N2sf4TextD1Ev, symObjAddr: 0x119A0, symBinAddr: 0x1000123F0, symSize: 0x20 }
  - { offset: 0x32F36, size: 0x8, addend: 0x0, symName: __ZN2sf13TransformableD2Ev, symObjAddr: 0x119C0, symBinAddr: 0x100012410, symSize: 0x10 }
  - { offset: 0x32F60, size: 0x8, addend: 0x0, symName: __ZN2sf8DrawableD2Ev, symObjAddr: 0x119D0, symBinAddr: 0x100012420, symSize: 0x10 }
  - { offset: 0x32F8A, size: 0x8, addend: 0x0, symName: __ZNSt3__118basic_stringstreamIcNS_11char_traitsIcEENS_9allocatorIcEEED2Ev, symObjAddr: 0x119E0, symBinAddr: 0x100012430, symSize: 0x1D0 }
  - { offset: 0x32FC3, size: 0x8, addend: 0x0, symName: __ZThn16_NSt3__118basic_stringstreamIcNS_11char_traitsIcEENS_9allocatorIcEEED1Ev, symObjAddr: 0x11BB0, symBinAddr: 0x100012600, symSize: 0x20 }
  - { offset: 0x32FD9, size: 0x8, addend: 0x0, symName: __ZTv0_n24_NSt3__118basic_stringstreamIcNS_11char_traitsIcEENS_9allocatorIcEEED1Ev, symObjAddr: 0x11BD0, symBinAddr: 0x100012620, symSize: 0x90 }
  - { offset: 0x32FEF, size: 0x8, addend: 0x0, symName: __ZNSt3__118basic_stringstreamIcNS_11char_traitsIcEENS_9allocatorIcEEED0Ev, symObjAddr: 0x11C60, symBinAddr: 0x1000126B0, symSize: 0x30 }
  - { offset: 0x3301B, size: 0x8, addend: 0x0, symName: __ZThn16_NSt3__118basic_stringstreamIcNS_11char_traitsIcEENS_9allocatorIcEEED0Ev, symObjAddr: 0x11C90, symBinAddr: 0x1000126E0, symSize: 0x20 }
  - { offset: 0x33031, size: 0x8, addend: 0x0, symName: __ZTv0_n24_NSt3__118basic_stringstreamIcNS_11char_traitsIcEENS_9allocatorIcEEED0Ev, symObjAddr: 0x11CB0, symBinAddr: 0x100012700, symSize: 0x90 }
  - { offset: 0x33047, size: 0x8, addend: 0x0, symName: __ZNSt3__115basic_stringbufIcNS_11char_traitsIcEENS_9allocatorIcEEED1Ev, symObjAddr: 0x11D40, symBinAddr: 0x100012790, symSize: 0x20 }
  - { offset: 0x33073, size: 0x8, addend: 0x0, symName: __ZNSt3__115basic_stringbufIcNS_11char_traitsIcEENS_9allocatorIcEEED2Ev, symObjAddr: 0x11D60, symBinAddr: 0x1000127B0, symSize: 0x70 }
  - { offset: 0x3309F, size: 0x8, addend: 0x0, symName: __ZNSt3__115basic_stringbufIcNS_11char_traitsIcEENS_9allocatorIcEEED0Ev, symObjAddr: 0x11DD0, symBinAddr: 0x100012820, symSize: 0x30 }
  - { offset: 0x330CB, size: 0x8, addend: 0x0, symName: __ZNSt3__115basic_stringbufIcNS_11char_traitsIcEENS_9allocatorIcEEE7seekoffExNS_8ios_base7seekdirEj, symObjAddr: 0x11E00, symBinAddr: 0x100012850, symSize: 0x470 }
  - { offset: 0x33140, size: 0x8, addend: 0x0, symName: __ZNSt3__115basic_stringbufIcNS_11char_traitsIcEENS_9allocatorIcEEE7seekposENS_4fposI11__mbstate_tEEj, symObjAddr: 0x12270, symBinAddr: 0x100012CC0, symSize: 0x270 }
  - { offset: 0x3318C, size: 0x8, addend: 0x0, symName: __ZNSt3__115basic_stringbufIcNS_11char_traitsIcEENS_9allocatorIcEEE9underflowEv, symObjAddr: 0x124E0, symBinAddr: 0x100012F30, symSize: 0x280 }
  - { offset: 0x331B4, size: 0x8, addend: 0x0, symName: __ZNSt3__115basic_stringbufIcNS_11char_traitsIcEENS_9allocatorIcEEE9pbackfailEi, symObjAddr: 0x12760, symBinAddr: 0x1000131B0, symSize: 0x380 }
  - { offset: 0x331EB, size: 0x8, addend: 0x0, symName: __ZNSt3__115basic_stringbufIcNS_11char_traitsIcEENS_9allocatorIcEEE8overflowEi, symObjAddr: 0x12AE0, symBinAddr: 0x100013530, symSize: 0x7B0 }
  - { offset: 0x332A6, size: 0x8, addend: 0x0, symName: __ZNKSt3__115basic_streambufIcNS_11char_traitsIcEEE4pptrEv, symObjAddr: 0x13290, symBinAddr: 0x100013CE0, symSize: 0x50 }
  - { offset: 0x332CC, size: 0x8, addend: 0x0, symName: __ZNSt3__14fposI11__mbstate_tEC1Ex, symObjAddr: 0x132E0, symBinAddr: 0x100013D30, symSize: 0x30 }
  - { offset: 0x33305, size: 0x8, addend: 0x0, symName: __ZNSt3__112basic_stringIcNS_11char_traitsIcEENS_9allocatorIcEEE4dataEv, symObjAddr: 0x13310, symBinAddr: 0x100013D60, symSize: 0x30 }
  - { offset: 0x3332B, size: 0x8, addend: 0x0, symName: __ZNKSt3__115basic_streambufIcNS_11char_traitsIcEEE4gptrEv, symObjAddr: 0x13340, symBinAddr: 0x100013D90, symSize: 0x50 }
  - { offset: 0x33351, size: 0x8, addend: 0x0, symName: __ZNKSt3__115basic_streambufIcNS_11char_traitsIcEEE5ebackEv, symObjAddr: 0x13390, symBinAddr: 0x100013DE0, symSize: 0x50 }
  - { offset: 0x33377, size: 0x8, addend: 0x0, symName: __ZNKSt3__115basic_streambufIcNS_11char_traitsIcEEE5pbaseEv, symObjAddr: 0x133E0, symBinAddr: 0x100013E30, symSize: 0x50 }
  - { offset: 0x3339D, size: 0x8, addend: 0x0, symName: __ZNSt3__115basic_streambufIcNS_11char_traitsIcEEE4setgEPcS4_S4_, symObjAddr: 0x13430, symBinAddr: 0x100013E80, symSize: 0xF0 }
  - { offset: 0x333F0, size: 0x8, addend: 0x0, symName: __ZNSt3__115basic_streambufIcNS_11char_traitsIcEEE4setpEPcS4_, symObjAddr: 0x13520, symBinAddr: 0x100013F70, symSize: 0xF0 }
  - { offset: 0x33434, size: 0x8, addend: 0x0, symName: __ZNKSt3__115basic_streambufIcNS_11char_traitsIcEEE5epptrEv, symObjAddr: 0x13610, symBinAddr: 0x100014060, symSize: 0x50 }
  - { offset: 0x3345A, size: 0x8, addend: 0x0, symName: __ZNSt3__115basic_streambufIcNS_11char_traitsIcEEE5pbumpEi, symObjAddr: 0x13660, symBinAddr: 0x1000140B0, symSize: 0x60 }
  - { offset: 0x3348F, size: 0x8, addend: 0x0, symName: __ZNSt3__14fposI11__mbstate_tEC2Ex, symObjAddr: 0x136C0, symBinAddr: 0x100014110, symSize: 0x70 }
  - { offset: 0x334C8, size: 0x8, addend: 0x0, symName: __ZNSt3__112basic_stringIcNS_11char_traitsIcEENS_9allocatorIcEEE13__get_pointerEv, symObjAddr: 0x13740, symBinAddr: 0x100014190, symSize: 0x50 }
  - { offset: 0x334EE, size: 0x8, addend: 0x0, symName: __ZNKSt3__112basic_stringIcNS_11char_traitsIcEENS_9allocatorIcEEE9__is_longEv, symObjAddr: 0x13790, symBinAddr: 0x1000141E0, symSize: 0x80 }
  - { offset: 0x33514, size: 0x8, addend: 0x0, symName: __ZNSt3__112basic_stringIcNS_11char_traitsIcEENS_9allocatorIcEEE18__get_long_pointerEv, symObjAddr: 0x13810, symBinAddr: 0x100014260, symSize: 0x50 }
  - { offset: 0x3353A, size: 0x8, addend: 0x0, symName: __ZNSt3__112basic_stringIcNS_11char_traitsIcEENS_9allocatorIcEEE19__get_short_pointerEv, symObjAddr: 0x13860, symBinAddr: 0x1000142B0, symSize: 0x30 }
  - { offset: 0x33560, size: 0x8, addend: 0x0, symName: __ZNKSt3__117__compressed_pairINS_12basic_stringIcNS_11char_traitsIcEENS_9allocatorIcEEE5__repES5_E5firstEv, symObjAddr: 0x13890, symBinAddr: 0x1000142E0, symSize: 0x20 }
  - { offset: 0x33586, size: 0x8, addend: 0x0, symName: __ZNKSt3__122__compressed_pair_elemINS_12basic_stringIcNS_11char_traitsIcEENS_9allocatorIcEEE5__repELi0ELb0EE5__getEv, symObjAddr: 0x138B0, symBinAddr: 0x100014300, symSize: 0x10 }
  - { offset: 0x335AC, size: 0x8, addend: 0x0, symName: __ZNSt3__114pointer_traitsIPcE10pointer_toERc, symObjAddr: 0x138C0, symBinAddr: 0x100014310, symSize: 0x10 }
  - { offset: 0x335D0, size: 0x8, addend: 0x0, symName: __ZNKSt3__14fposI11__mbstate_tEcvxEv, symObjAddr: 0x138D0, symBinAddr: 0x100014320, symSize: 0x50 }
  - { offset: 0x335F6, size: 0x8, addend: 0x0, symName: __ZNKSt3__115basic_streambufIcNS_11char_traitsIcEEE5egptrEv, symObjAddr: 0x13920, symBinAddr: 0x100014370, symSize: 0x50 }
  - { offset: 0x3361C, size: 0x8, addend: 0x0, symName: __ZNSt3__111char_traitsIcE11to_int_typeEc, symObjAddr: 0x13970, symBinAddr: 0x1000143C0, symSize: 0x10 }
  - { offset: 0x33640, size: 0x8, addend: 0x0, symName: __ZNSt3__111char_traitsIcE3eofEv, symObjAddr: 0x13980, symBinAddr: 0x1000143D0, symSize: 0x10 }
  - { offset: 0x33654, size: 0x8, addend: 0x0, symName: __ZNSt3__111char_traitsIcE11eq_int_typeEii, symObjAddr: 0x13990, symBinAddr: 0x1000143E0, symSize: 0x20 }
  - { offset: 0x33687, size: 0x8, addend: 0x0, symName: __ZNSt3__111char_traitsIcE7not_eofEi, symObjAddr: 0x139B0, symBinAddr: 0x100014400, symSize: 0x50 }
  - { offset: 0x336AB, size: 0x8, addend: 0x0, symName: __ZNSt3__111char_traitsIcE2eqEcc, symObjAddr: 0x13A00, symBinAddr: 0x100014450, symSize: 0x30 }
  - { offset: 0x336DE, size: 0x8, addend: 0x0, symName: __ZNSt3__111char_traitsIcE12to_char_typeEi, symObjAddr: 0x13A30, symBinAddr: 0x100014480, symSize: 0x10 }
  - { offset: 0x33702, size: 0x8, addend: 0x0, symName: __ZNSt3__112basic_stringIcNS_11char_traitsIcEENS_9allocatorIcEEE6resizeEm, symObjAddr: 0x13A40, symBinAddr: 0x100014490, symSize: 0x30 }
  - { offset: 0x33737, size: 0x8, addend: 0x0, symName: __ZNKSt3__112basic_stringIcNS_11char_traitsIcEENS_9allocatorIcEEE8capacityEv, symObjAddr: 0x13A70, symBinAddr: 0x1000144C0, symSize: 0x60 }
  - { offset: 0x3375D, size: 0x8, addend: 0x0, symName: __ZNKSt3__112basic_stringIcNS_11char_traitsIcEENS_9allocatorIcEEE4sizeEv, symObjAddr: 0x13AD0, symBinAddr: 0x100014520, symSize: 0x50 }
  - { offset: 0x33783, size: 0x8, addend: 0x0, symName: __ZNSt3__115basic_streambufIcNS_11char_traitsIcEEE7__pbumpEl, symObjAddr: 0x13B20, symBinAddr: 0x100014570, symSize: 0x60 }
  - { offset: 0x337B8, size: 0x8, addend: 0x0, symName: __ZNSt3__115basic_streambufIcNS_11char_traitsIcEEE5sputcEc, symObjAddr: 0x13BB0, symBinAddr: 0x100014600, symSize: 0x1C0 }
  - { offset: 0x337ED, size: 0x8, addend: 0x0, symName: __ZNKSt3__112basic_stringIcNS_11char_traitsIcEENS_9allocatorIcEEE14__get_long_capEv, symObjAddr: 0x13D70, symBinAddr: 0x1000147C0, symSize: 0x50 }
  - { offset: 0x33813, size: 0x8, addend: 0x0, symName: __ZNKSt3__112basic_stringIcNS_11char_traitsIcEENS_9allocatorIcEEE15__get_long_sizeEv, symObjAddr: 0x13DC0, symBinAddr: 0x100014810, symSize: 0x50 }
  - { offset: 0x33839, size: 0x8, addend: 0x0, symName: __ZNKSt3__112basic_stringIcNS_11char_traitsIcEENS_9allocatorIcEEE16__get_short_sizeEv, symObjAddr: 0x13E10, symBinAddr: 0x100014860, symSize: 0x70 }
  - { offset: 0x33877, size: 0x8, addend: 0x0, symName: __ZNKSt3__16__lessIPcS1_EclERKS1_S4_, symObjAddr: 0x13FF0, symBinAddr: 0x100014A40, symSize: 0xA0 }
  - { offset: 0x338BB, size: 0x8, addend: 0x0, symName: __ZN2sf14RectangleShapeD2Ev, symObjAddr: 0x14090, symBinAddr: 0x100014AE0, symSize: 0x20 }
  - { offset: 0x338E7, size: 0x8, addend: 0x0, symName: __ZThn8_N2sf14RectangleShapeD1Ev, symObjAddr: 0x140B0, symBinAddr: 0x100014B00, symSize: 0x20 }
  - { offset: 0x338FD, size: 0x8, addend: 0x0, symName: __ZN2sf5ShapeD2Ev, symObjAddr: 0x140D0, symBinAddr: 0x100014B20, symSize: 0xD0 }
  - { offset: 0x33929, size: 0x8, addend: 0x0, symName: __ZN2sf6VertexC2Ev, symObjAddr: 0x141A0, symBinAddr: 0x100014BF0, symSize: 0x60 }
  - { offset: 0x33955, size: 0x8, addend: 0x0, symName: __ZN2sf7Vector2IfEC1Ev, symObjAddr: 0x14200, symBinAddr: 0x100014C50, symSize: 0x20 }
  - { offset: 0x3397F, size: 0x8, addend: 0x0, symName: __ZN2sf7Vector2IfEC2Ev, symObjAddr: 0x14220, symBinAddr: 0x100014C70, symSize: 0xC0 }
  - { offset: 0x339A9, size: 0x8, addend: 0x0, symName: __ZN2sf11VertexArrayD2Ev, symObjAddr: 0x142E0, symBinAddr: 0x100014D30, symSize: 0x70 }
  - { offset: 0x339D5, size: 0x8, addend: 0x0, symName: __ZNSt3__16vectorIN2sf6VertexENS_9allocatorIS2_EEED1Ev, symObjAddr: 0x14350, symBinAddr: 0x100014DA0, symSize: 0x20 }
  - { offset: 0x339FF, size: 0x8, addend: 0x0, symName: __ZNSt3__16vectorIN2sf6VertexENS_9allocatorIS2_EEED2Ev, symObjAddr: 0x14370, symBinAddr: 0x100014DC0, symSize: 0x30 }
  - { offset: 0x33A29, size: 0x8, addend: 0x0, symName: __ZNKSt3__16vectorIN2sf6VertexENS_9allocatorIS2_EEE17__annotate_deleteEv, symObjAddr: 0x143A0, symBinAddr: 0x100014DF0, symSize: 0xD0 }
  - { offset: 0x33A4F, size: 0x8, addend: 0x0, symName: __ZNSt3__113__vector_baseIN2sf6VertexENS_9allocatorIS2_EEED2Ev, symObjAddr: 0x14470, symBinAddr: 0x100014EC0, symSize: 0xB0 }
  - { offset: 0x33A7B, size: 0x8, addend: 0x0, symName: __ZNKSt3__16vectorIN2sf6VertexENS_9allocatorIS2_EEE31__annotate_contiguous_containerEPKvS7_S7_S7_, symObjAddr: 0x14520, symBinAddr: 0x100014F70, symSize: 0x50 }
  - { offset: 0x33ADD, size: 0x8, addend: 0x0, symName: __ZNKSt3__16vectorIN2sf6VertexENS_9allocatorIS2_EEE4dataEv, symObjAddr: 0x14570, symBinAddr: 0x100014FC0, symSize: 0x50 }
  - { offset: 0x33B03, size: 0x8, addend: 0x0, symName: __ZNKSt3__16vectorIN2sf6VertexENS_9allocatorIS2_EEE8capacityEv, symObjAddr: 0x145C0, symBinAddr: 0x100015010, symSize: 0x20 }
  - { offset: 0x33B29, size: 0x8, addend: 0x0, symName: __ZNKSt3__16vectorIN2sf6VertexENS_9allocatorIS2_EEE4sizeEv, symObjAddr: 0x145E0, symBinAddr: 0x100015030, symSize: 0xA0 }
  - { offset: 0x33B4F, size: 0x8, addend: 0x0, symName: __ZNKSt3__113__vector_baseIN2sf6VertexENS_9allocatorIS2_EEE8capacityEv, symObjAddr: 0x14690, symBinAddr: 0x1000150E0, symSize: 0xA0 }
  - { offset: 0x33B75, size: 0x8, addend: 0x0, symName: __ZNKSt3__113__vector_baseIN2sf6VertexENS_9allocatorIS2_EEE9__end_capEv, symObjAddr: 0x14730, symBinAddr: 0x100015180, symSize: 0x20 }
  - { offset: 0x33B9B, size: 0x8, addend: 0x0, symName: __ZNKSt3__117__compressed_pairIPN2sf6VertexENS_9allocatorIS2_EEE5firstEv, symObjAddr: 0x14750, symBinAddr: 0x1000151A0, symSize: 0x20 }
  - { offset: 0x33BC1, size: 0x8, addend: 0x0, symName: __ZNKSt3__122__compressed_pair_elemIPN2sf6VertexELi0ELb0EE5__getEv, symObjAddr: 0x14770, symBinAddr: 0x1000151C0, symSize: 0x10 }
  - { offset: 0x33BE7, size: 0x8, addend: 0x0, symName: __ZNSt3__113__vector_baseIN2sf6VertexENS_9allocatorIS2_EEE5clearEv, symObjAddr: 0x14780, symBinAddr: 0x1000151D0, symSize: 0x50 }
  - { offset: 0x33C0D, size: 0x8, addend: 0x0, symName: __ZNSt3__116allocator_traitsINS_9allocatorIN2sf6VertexEEEE10deallocateERS4_PS3_m, symObjAddr: 0x147D0, symBinAddr: 0x100015220, symSize: 0x30 }
  - { offset: 0x33C4F, size: 0x8, addend: 0x0, symName: __ZNSt3__113__vector_baseIN2sf6VertexENS_9allocatorIS2_EEE7__allocEv, symObjAddr: 0x14800, symBinAddr: 0x100015250, symSize: 0x20 }
  - { offset: 0x33C75, size: 0x8, addend: 0x0, symName: __ZNSt3__113__vector_baseIN2sf6VertexENS_9allocatorIS2_EEE17__destruct_at_endEPS2_, symObjAddr: 0x14820, symBinAddr: 0x100015270, symSize: 0xF0 }
  - { offset: 0x33CBC, size: 0x8, addend: 0x0, symName: __ZNSt3__116allocator_traitsINS_9allocatorIN2sf6VertexEEEE7destroyIS3_EEvRS4_PT_, symObjAddr: 0x14910, symBinAddr: 0x100015360, symSize: 0x30 }
  - { offset: 0x33CF8, size: 0x8, addend: 0x0, symName: __ZNSt3__116allocator_traitsINS_9allocatorIN2sf6VertexEEEE9__destroyIS3_EEvNS_17integral_constantIbLb1EEERS4_PT_, symObjAddr: 0x14940, symBinAddr: 0x100015390, symSize: 0x30 }
  - { offset: 0x33D40, size: 0x8, addend: 0x0, symName: __ZNSt3__19allocatorIN2sf6VertexEE7destroyEPS2_, symObjAddr: 0x14970, symBinAddr: 0x1000153C0, symSize: 0x10 }
  - { offset: 0x33D75, size: 0x8, addend: 0x0, symName: __ZNSt3__19allocatorIN2sf6VertexEE10deallocateEPS2_m, symObjAddr: 0x14980, symBinAddr: 0x1000153D0, symSize: 0x50 }
  - { offset: 0x33DB9, size: 0x8, addend: 0x0, symName: __ZNSt3__117__compressed_pairIPN2sf6VertexENS_9allocatorIS2_EEE6secondEv, symObjAddr: 0x149D0, symBinAddr: 0x100015420, symSize: 0x20 }
  - { offset: 0x33DDF, size: 0x8, addend: 0x0, symName: __ZNSt3__122__compressed_pair_elemINS_9allocatorIN2sf6VertexEEELi1ELb1EE5__getEv, symObjAddr: 0x149F0, symBinAddr: 0x100015440, symSize: 0x10 }
  - { offset: 0x33E05, size: 0x8, addend: 0x0, symName: __ZN2sf5ColorC2Ehhhh, symObjAddr: 0x14A00, symBinAddr: 0x100015450, symSize: 0x180 }
  - { offset: 0x33E6D, size: 0x8, addend: 0x0, symName: __ZNSt3__14__fs10filesystem4pathD2Ev, symObjAddr: 0x14B80, symBinAddr: 0x1000155D0, symSize: 0x20 }
  - { offset: 0x33E97, size: 0x8, addend: 0x0, symName: __ZN2sf7Vector2IjEC2Ejj, symObjAddr: 0x14BA0, symBinAddr: 0x1000155F0, symSize: 0xD0 }
  - { offset: 0x33EE1, size: 0x8, addend: 0x0, symName: __ZN2sf5ClockC2Ev, symObjAddr: 0x14C70, symBinAddr: 0x1000156C0, symSize: 0x70 }
  - { offset: 0x33F0D, size: 0x8, addend: 0x0, symName: __ZNSt3__16chrono10time_pointINS0_12steady_clockENS0_8durationIxNS_5ratioILl1ELl1000000000EEEEEEC1Ev, symObjAddr: 0x14CE0, symBinAddr: 0x100015730, symSize: 0x20 }
  - { offset: 0x33F37, size: 0x8, addend: 0x0, symName: __ZNSt3__16chrono10time_pointINS0_12steady_clockENS0_8durationIxNS_5ratioILl1ELl1000000000EEEEEEC2Ev, symObjAddr: 0x14D00, symBinAddr: 0x100015750, symSize: 0x60 }
  - { offset: 0x33F61, size: 0x8, addend: 0x0, symName: __ZNSt3__16chrono8durationIxNS_5ratioILl1ELl1000000000EEEE4zeroEv, symObjAddr: 0x14D60, symBinAddr: 0x1000157B0, symSize: 0x280 }
  - { offset: 0x33F75, size: 0x8, addend: 0x0, symName: __ZNSt3__16chrono15duration_valuesIxE4zeroEv, symObjAddr: 0x14FE0, symBinAddr: 0x100015A30, symSize: 0x10 }
  - { offset: 0x33F9B, size: 0x8, addend: 0x0, symName: __ZNSt3__16chrono8durationIxNS_5ratioILl1ELl1000000000EEEEC1IxEERKT_PNS_9enable_ifIXaasr14is_convertibleIS6_xEE5valueooL_ZNS_17integral_constantIbLb0EE5valueEEntsr23treat_as_floating_pointIS6_EE5valueEvE4typeE, symObjAddr: 0x14FF0, symBinAddr: 0x100015A40, symSize: 0x30 }
  - { offset: 0x33FE9, size: 0x8, addend: 0x0, symName: __ZNSt3__16chrono8durationIxNS_5ratioILl1ELl1000000000EEEEC2IxEERKT_PNS_9enable_ifIXaasr14is_convertibleIS6_xEE5valueooL_ZNS_17integral_constantIbLb0EE5valueEEntsr23treat_as_floating_pointIS6_EE5valueEvE4typeE, symObjAddr: 0x15020, symBinAddr: 0x100015A70, symSize: 0x90 }
  - { offset: 0x34037, size: 0x8, addend: 0x0, symName: __ZNSt3__16chrono8durationIfNS_5ratioILl1ELl1EEEEC1IxNS2_ILl1ELl1000000EEEEERKNS1_IT_T0_EEPNS_9enable_ifIXaasr13__no_overflowIS8_S3_EE5valueooL_ZNS_17integral_constantIbLb1EE5valueEEaaeqsr13__no_overflowIS8_S3_E4typeE3denLi1Entsr23treat_as_floating_pointIS7_EE5valueEvE4typeE, symObjAddr: 0x150B0, symBinAddr: 0x100015B00, symSize: 0x30 }
  - { offset: 0x3408E, size: 0x8, addend: 0x0, symName: __ZNKSt3__16chrono8durationIfNS_5ratioILl1ELl1EEEE5countEv, symObjAddr: 0x150E0, symBinAddr: 0x100015B30, symSize: 0x70 }
  - { offset: 0x340B4, size: 0x8, addend: 0x0, symName: __ZNSt3__16chrono8durationIfNS_5ratioILl1ELl1EEEEC2IxNS2_ILl1ELl1000000EEEEERKNS1_IT_T0_EEPNS_9enable_ifIXaasr13__no_overflowIS8_S3_EE5valueooL_ZNS_17integral_constantIbLb1EE5valueEEaaeqsr13__no_overflowIS8_S3_E4typeE3denLi1Entsr23treat_as_floating_pointIS7_EE5valueEvE4typeE, symObjAddr: 0x15150, symBinAddr: 0x100015BA0, symSize: 0x210 }
  - { offset: 0x3410E, size: 0x8, addend: 0x0, symName: __ZNKSt3__16chrono8durationIxNS_5ratioILl1ELl1000000EEEE5countEv, symObjAddr: 0x15780, symBinAddr: 0x1000161D0, symSize: 0x50 }
  - { offset: 0x34134, size: 0x8, addend: 0x0, symName: __ZNSt3__16chrono8durationIfNS_5ratioILl1ELl1EEEEC1IfEERKT_PNS_9enable_ifIXaasr14is_convertibleIS6_fEE5valueooL_ZNS_17integral_constantIbLb1EE5valueEEntsr23treat_as_floating_pointIS6_EE5valueEvE4typeE, symObjAddr: 0x157D0, symBinAddr: 0x100016220, symSize: 0x30 }
  - { offset: 0x34182, size: 0x8, addend: 0x0, symName: __ZNSt3__16chrono8durationIfNS_5ratioILl1ELl1EEEEC2IfEERKT_PNS_9enable_ifIXaasr14is_convertibleIS6_fEE5valueooL_ZNS_17integral_constantIbLb1EE5valueEEntsr23treat_as_floating_pointIS6_EE5valueEvE4typeE, symObjAddr: 0x15800, symBinAddr: 0x100016250, symSize: 0xD0 }
  - { offset: 0x341D0, size: 0x8, addend: 0x0, symName: __ZNKSt3__123__optional_storage_baseIN2sf5EventELb0EE9has_valueEv, symObjAddr: 0x158D0, symBinAddr: 0x100016320, symSize: 0x70 }
  - { offset: 0x341F6, size: 0x8, addend: 0x0, symName: __ZNRSt3__123__optional_storage_baseIN2sf5EventELb0EE5__getEv, symObjAddr: 0x15940, symBinAddr: 0x100016390, symSize: 0x10 }
  - { offset: 0x3421C, size: 0x8, addend: 0x0, symName: __ZNKSt3__111__wrap_iterIP4DiskE4baseEv, symObjAddr: 0x15990, symBinAddr: 0x1000163E0, symSize: 0x50 }
  - { offset: 0x34242, size: 0x8, addend: 0x0, symName: __ZN2sf11CircleShapeD2Ev, symObjAddr: 0x159E0, symBinAddr: 0x100016430, symSize: 0x20 }
  - { offset: 0x3426E, size: 0x8, addend: 0x0, symName: __ZThn8_N2sf11CircleShapeD1Ev, symObjAddr: 0x15A00, symBinAddr: 0x100016450, symSize: 0x20 }
  - { offset: 0x34284, size: 0x8, addend: 0x0, symName: __ZN2sf12RenderWindowD2Ev, symObjAddr: 0x15A20, symBinAddr: 0x100016470, symSize: 0x30 }
  - { offset: 0x342B0, size: 0x8, addend: 0x0, symName: __ZThn72_N2sf12RenderWindowD1Ev, symObjAddr: 0x15A50, symBinAddr: 0x1000164A0, symSize: 0x20 }
  - { offset: 0x342C6, size: 0x8, addend: 0x0, symName: __ZN2sf12RenderTargetD2Ev, symObjAddr: 0x15A70, symBinAddr: 0x1000164C0, symSize: 0x10 }
  - { offset: 0x342F0, size: 0x8, addend: 0x0, symName: __ZNSt3__16vectorIfNS_9allocatorIfEEEC2Ev, symObjAddr: 0x15A80, symBinAddr: 0x1000164D0, symSize: 0x20 }
  - { offset: 0x3431A, size: 0x8, addend: 0x0, symName: __ZNSt3__113__vector_baseIfNS_9allocatorIfEEEC2Ev, symObjAddr: 0x15AA0, symBinAddr: 0x1000164F0, symSize: 0x2F0 }
  - { offset: 0x34347, size: 0x8, addend: 0x0, symName: __ZNSt3__117__compressed_pairIPfNS_9allocatorIfEEEC1IDnNS_18__default_init_tagEEEOT_OT0_, symObjAddr: 0x15D90, symBinAddr: 0x1000167E0, symSize: 0x30 }
  - { offset: 0x343A1, size: 0x8, addend: 0x0, symName: __ZNSt3__117__compressed_pairIPfNS_9allocatorIfEEEC2IDnNS_18__default_init_tagEEEOT_OT0_, symObjAddr: 0x15DC0, symBinAddr: 0x100016810, symSize: 0x40 }
  - { offset: 0x343FB, size: 0x8, addend: 0x0, symName: __ZNSt3__122__compressed_pair_elemIPfLi0ELb0EEC2IDnvEEOT_, symObjAddr: 0x15E00, symBinAddr: 0x100016850, symSize: 0x50 }
  - { offset: 0x3443E, size: 0x8, addend: 0x0, symName: __ZNSt3__122__compressed_pair_elemINS_9allocatorIfEELi1ELb1EEC2ENS_18__default_init_tagE, symObjAddr: 0x15E50, symBinAddr: 0x1000168A0, symSize: 0x20 }
  - { offset: 0x34474, size: 0x8, addend: 0x0, symName: __ZNSt3__19allocatorIfEC2Ev, symObjAddr: 0x15E70, symBinAddr: 0x1000168C0, symSize: 0x10 }
  - { offset: 0x3449E, size: 0x8, addend: 0x0, symName: __ZNSt3__16vectorIfNS_9allocatorIfEEED2Ev, symObjAddr: 0x15E80, symBinAddr: 0x1000168D0, symSize: 0x30 }
  - { offset: 0x344C8, size: 0x8, addend: 0x0, symName: __ZNKSt3__16vectorIfNS_9allocatorIfEEE17__annotate_deleteEv, symObjAddr: 0x15EB0, symBinAddr: 0x100016900, symSize: 0xC0 }
  - { offset: 0x344EE, size: 0x8, addend: 0x0, symName: __ZNSt3__113__vector_baseIfNS_9allocatorIfEEED2Ev, symObjAddr: 0x15F70, symBinAddr: 0x1000169C0, symSize: 0xB0 }
  - { offset: 0x3451A, size: 0x8, addend: 0x0, symName: __ZNKSt3__16vectorIfNS_9allocatorIfEEE31__annotate_contiguous_containerEPKvS5_S5_S5_, symObjAddr: 0x16020, symBinAddr: 0x100016A70, symSize: 0x50 }
  - { offset: 0x3457C, size: 0x8, addend: 0x0, symName: __ZNKSt3__16vectorIfNS_9allocatorIfEEE4dataEv, symObjAddr: 0x16070, symBinAddr: 0x100016AC0, symSize: 0x50 }
  - { offset: 0x345A2, size: 0x8, addend: 0x0, symName: __ZNKSt3__16vectorIfNS_9allocatorIfEEE8capacityEv, symObjAddr: 0x160C0, symBinAddr: 0x100016B10, symSize: 0x20 }
  - { offset: 0x345C8, size: 0x8, addend: 0x0, symName: __ZNKSt3__113__vector_baseIfNS_9allocatorIfEEE8capacityEv, symObjAddr: 0x160F0, symBinAddr: 0x100016B40, symSize: 0x90 }
  - { offset: 0x345EE, size: 0x8, addend: 0x0, symName: __ZNKSt3__113__vector_baseIfNS_9allocatorIfEEE9__end_capEv, symObjAddr: 0x16180, symBinAddr: 0x100016BD0, symSize: 0x20 }
  - { offset: 0x34614, size: 0x8, addend: 0x0, symName: __ZNKSt3__117__compressed_pairIPfNS_9allocatorIfEEE5firstEv, symObjAddr: 0x161A0, symBinAddr: 0x100016BF0, symSize: 0x20 }
  - { offset: 0x3463A, size: 0x8, addend: 0x0, symName: __ZNKSt3__122__compressed_pair_elemIPfLi0ELb0EE5__getEv, symObjAddr: 0x161C0, symBinAddr: 0x100016C10, symSize: 0x10 }
  - { offset: 0x34660, size: 0x8, addend: 0x0, symName: __ZNSt3__113__vector_baseIfNS_9allocatorIfEEE5clearEv, symObjAddr: 0x161D0, symBinAddr: 0x100016C20, symSize: 0x50 }
  - { offset: 0x34686, size: 0x8, addend: 0x0, symName: __ZNSt3__116allocator_traitsINS_9allocatorIfEEE10deallocateERS2_Pfm, symObjAddr: 0x16220, symBinAddr: 0x100016C70, symSize: 0x30 }
  - { offset: 0x346C8, size: 0x8, addend: 0x0, symName: __ZNSt3__113__vector_baseIfNS_9allocatorIfEEE7__allocEv, symObjAddr: 0x16250, symBinAddr: 0x100016CA0, symSize: 0x20 }
  - { offset: 0x346EE, size: 0x8, addend: 0x0, symName: __ZNSt3__113__vector_baseIfNS_9allocatorIfEEE17__destruct_at_endEPf, symObjAddr: 0x16270, symBinAddr: 0x100016CC0, symSize: 0xF0 }
  - { offset: 0x34735, size: 0x8, addend: 0x0, symName: __ZNSt3__116allocator_traitsINS_9allocatorIfEEE7destroyIfEEvRS2_PT_, symObjAddr: 0x16360, symBinAddr: 0x100016DB0, symSize: 0x30 }
  - { offset: 0x34771, size: 0x8, addend: 0x0, symName: __ZNSt3__116allocator_traitsINS_9allocatorIfEEE9__destroyIfEEvNS_17integral_constantIbLb1EEERS2_PT_, symObjAddr: 0x16390, symBinAddr: 0x100016DE0, symSize: 0x30 }
  - { offset: 0x347B9, size: 0x8, addend: 0x0, symName: __ZNSt3__19allocatorIfE7destroyEPf, symObjAddr: 0x163C0, symBinAddr: 0x100016E10, symSize: 0x10 }
  - { offset: 0x347EE, size: 0x8, addend: 0x0, symName: __ZNSt3__19allocatorIfE10deallocateEPfm, symObjAddr: 0x163D0, symBinAddr: 0x100016E20, symSize: 0x50 }
  - { offset: 0x34832, size: 0x8, addend: 0x0, symName: __ZNSt3__117__compressed_pairIPfNS_9allocatorIfEEE6secondEv, symObjAddr: 0x16420, symBinAddr: 0x100016E70, symSize: 0x20 }
  - { offset: 0x34858, size: 0x8, addend: 0x0, symName: __ZNSt3__122__compressed_pair_elemINS_9allocatorIfEELi1ELb1EE5__getEv, symObjAddr: 0x16440, symBinAddr: 0x100016E90, symSize: 0x10 }
  - { offset: 0x3487E, size: 0x8, addend: 0x0, symName: __ZNSt3__16vectorIiNS_9allocatorIiEEEC2EmRKi, symObjAddr: 0x16450, symBinAddr: 0x100016EA0, symSize: 0x90 }
  - { offset: 0x348C8, size: 0x8, addend: 0x0, symName: __ZNSt3__113__vector_baseIiNS_9allocatorIiEEEC2Ev, symObjAddr: 0x164E0, symBinAddr: 0x100016F30, symSize: 0x2F0 }
  - { offset: 0x348F5, size: 0x8, addend: 0x0, symName: __ZNSt3__16vectorIiNS_9allocatorIiEEE11__vallocateEm, symObjAddr: 0x167D0, symBinAddr: 0x100017220, symSize: 0x160 }
  - { offset: 0x3492C, size: 0x8, addend: 0x0, symName: __ZNSt3__16vectorIiNS_9allocatorIiEEE18__construct_at_endEmRKi, symObjAddr: 0x16930, symBinAddr: 0x100017380, symSize: 0x3E0 }
  - { offset: 0x34989, size: 0x8, addend: 0x0, symName: __ZNSt3__113__vector_baseIiNS_9allocatorIiEEED2Ev, symObjAddr: 0x16D10, symBinAddr: 0x100017760, symSize: 0xB0 }
  - { offset: 0x349B5, size: 0x8, addend: 0x0, symName: __ZNSt3__117__compressed_pairIPiNS_9allocatorIiEEEC1IDnNS_18__default_init_tagEEEOT_OT0_, symObjAddr: 0x16DC0, symBinAddr: 0x100017810, symSize: 0x30 }
  - { offset: 0x34A0F, size: 0x8, addend: 0x0, symName: __ZNSt3__117__compressed_pairIPiNS_9allocatorIiEEEC2IDnNS_18__default_init_tagEEEOT_OT0_, symObjAddr: 0x16DF0, symBinAddr: 0x100017840, symSize: 0x40 }
  - { offset: 0x34A69, size: 0x8, addend: 0x0, symName: __ZNSt3__122__compressed_pair_elemIPiLi0ELb0EEC2IDnvEEOT_, symObjAddr: 0x16E30, symBinAddr: 0x100017880, symSize: 0x50 }
  - { offset: 0x34AAC, size: 0x8, addend: 0x0, symName: __ZNSt3__122__compressed_pair_elemINS_9allocatorIiEELi1ELb1EEC2ENS_18__default_init_tagE, symObjAddr: 0x16E80, symBinAddr: 0x1000178D0, symSize: 0x20 }
  - { offset: 0x34AE2, size: 0x8, addend: 0x0, symName: __ZNSt3__19allocatorIiEC2Ev, symObjAddr: 0x16EA0, symBinAddr: 0x1000178F0, symSize: 0x10 }
  - { offset: 0x34B0C, size: 0x8, addend: 0x0, symName: __ZNKSt3__16vectorIiNS_9allocatorIiEEE8max_sizeEv, symObjAddr: 0x16EB0, symBinAddr: 0x100017900, symSize: 0x2F0 }
  - { offset: 0x34B35, size: 0x8, addend: 0x0, symName: __ZNSt3__116allocator_traitsINS_9allocatorIiEEE8allocateERS2_m, symObjAddr: 0x171A0, symBinAddr: 0x100017BF0, symSize: 0x30 }
  - { offset: 0x34B68, size: 0x8, addend: 0x0, symName: __ZNSt3__113__vector_baseIiNS_9allocatorIiEEE7__allocEv, symObjAddr: 0x171D0, symBinAddr: 0x100017C20, symSize: 0x20 }
  - { offset: 0x34B8E, size: 0x8, addend: 0x0, symName: __ZNSt3__113__vector_baseIiNS_9allocatorIiEEE9__end_capEv, symObjAddr: 0x171F0, symBinAddr: 0x100017C40, symSize: 0x20 }
  - { offset: 0x34BB4, size: 0x8, addend: 0x0, symName: __ZNKSt3__16vectorIiNS_9allocatorIiEEE14__annotate_newEm, symObjAddr: 0x17210, symBinAddr: 0x100017C60, symSize: 0xB0 }
  - { offset: 0x34BE9, size: 0x8, addend: 0x0, symName: __ZNSt3__116allocator_traitsINS_9allocatorIiEEE8max_sizeERKS2_, symObjAddr: 0x172F0, symBinAddr: 0x100017D40, symSize: 0x20 }
  - { offset: 0x34C0D, size: 0x8, addend: 0x0, symName: __ZNKSt3__113__vector_baseIiNS_9allocatorIiEEE7__allocEv, symObjAddr: 0x17310, symBinAddr: 0x100017D60, symSize: 0x20 }
  - { offset: 0x34C33, size: 0x8, addend: 0x0, symName: __ZNSt3__114numeric_limitsIlE3maxEv, symObjAddr: 0x17330, symBinAddr: 0x100017D80, symSize: 0x10 }
  - { offset: 0x34C53, size: 0x8, addend: 0x0, symName: __ZNKSt3__16__lessImmEclERKmS3_, symObjAddr: 0x174B0, symBinAddr: 0x100017F00, symSize: 0xA0 }
  - { offset: 0x34C97, size: 0x8, addend: 0x0, symName: __ZNSt3__116allocator_traitsINS_9allocatorIiEEE10__max_sizeENS_17integral_constantIbLb1EEERKS2_, symObjAddr: 0x17550, symBinAddr: 0x100017FA0, symSize: 0x20 }
  - { offset: 0x34CC7, size: 0x8, addend: 0x0, symName: __ZNKSt3__19allocatorIiE8max_sizeEv, symObjAddr: 0x17570, symBinAddr: 0x100017FC0, symSize: 0x20 }
  - { offset: 0x34CED, size: 0x8, addend: 0x0, symName: __ZNKSt3__117__compressed_pairIPiNS_9allocatorIiEEE6secondEv, symObjAddr: 0x17590, symBinAddr: 0x100017FE0, symSize: 0x20 }
  - { offset: 0x34D13, size: 0x8, addend: 0x0, symName: __ZNKSt3__122__compressed_pair_elemINS_9allocatorIiEELi1ELb1EE5__getEv, symObjAddr: 0x175B0, symBinAddr: 0x100018000, symSize: 0x10 }
  - { offset: 0x34D39, size: 0x8, addend: 0x0, symName: __ZNSt3__123__libcpp_numeric_limitsIlLb1EE3maxEv, symObjAddr: 0x175C0, symBinAddr: 0x100018010, symSize: 0x10 }
  - { offset: 0x34D4D, size: 0x8, addend: 0x0, symName: __ZNSt3__19allocatorIiE8allocateEmPKv, symObjAddr: 0x175D0, symBinAddr: 0x100018020, symSize: 0x60 }
  - { offset: 0x34D8E, size: 0x8, addend: 0x0, symName: __ZNSt12length_errorC1EPKc, symObjAddr: 0x17700, symBinAddr: 0x100018150, symSize: 0x30 }
  - { offset: 0x34DC7, size: 0x8, addend: 0x0, symName: __ZNSt12length_errorC2EPKc, symObjAddr: 0x17730, symBinAddr: 0x100018180, symSize: 0x70 }
  - { offset: 0x34E00, size: 0x8, addend: 0x0, symName: __ZNSt3__117__compressed_pairIPiNS_9allocatorIiEEE6secondEv, symObjAddr: 0x177A0, symBinAddr: 0x1000181F0, symSize: 0x20 }
  - { offset: 0x34E26, size: 0x8, addend: 0x0, symName: __ZNSt3__122__compressed_pair_elemINS_9allocatorIiEELi1ELb1EE5__getEv, symObjAddr: 0x177C0, symBinAddr: 0x100018210, symSize: 0x10 }
  - { offset: 0x34E4C, size: 0x8, addend: 0x0, symName: __ZNSt3__117__compressed_pairIPiNS_9allocatorIiEEE5firstEv, symObjAddr: 0x177D0, symBinAddr: 0x100018220, symSize: 0x20 }
  - { offset: 0x34E72, size: 0x8, addend: 0x0, symName: __ZNSt3__122__compressed_pair_elemIPiLi0ELb0EE5__getEv, symObjAddr: 0x177F0, symBinAddr: 0x100018240, symSize: 0x10 }
  - { offset: 0x34E98, size: 0x8, addend: 0x0, symName: __ZNKSt3__16vectorIiNS_9allocatorIiEEE31__annotate_contiguous_containerEPKvS5_S5_S5_, symObjAddr: 0x17800, symBinAddr: 0x100018250, symSize: 0x50 }
  - { offset: 0x34EFA, size: 0x8, addend: 0x0, symName: __ZNKSt3__16vectorIiNS_9allocatorIiEEE4dataEv, symObjAddr: 0x17850, symBinAddr: 0x1000182A0, symSize: 0x50 }
  - { offset: 0x34F20, size: 0x8, addend: 0x0, symName: __ZNKSt3__16vectorIiNS_9allocatorIiEEE8capacityEv, symObjAddr: 0x178A0, symBinAddr: 0x1000182F0, symSize: 0x20 }
  - { offset: 0x34F46, size: 0x8, addend: 0x0, symName: __ZNKSt3__113__vector_baseIiNS_9allocatorIiEEE8capacityEv, symObjAddr: 0x178D0, symBinAddr: 0x100018320, symSize: 0x90 }
  - { offset: 0x34F6C, size: 0x8, addend: 0x0, symName: __ZNKSt3__113__vector_baseIiNS_9allocatorIiEEE9__end_capEv, symObjAddr: 0x17960, symBinAddr: 0x1000183B0, symSize: 0x20 }
  - { offset: 0x34F92, size: 0x8, addend: 0x0, symName: __ZNKSt3__117__compressed_pairIPiNS_9allocatorIiEEE5firstEv, symObjAddr: 0x17980, symBinAddr: 0x1000183D0, symSize: 0x20 }
  - { offset: 0x34FB8, size: 0x8, addend: 0x0, symName: __ZNKSt3__122__compressed_pair_elemIPiLi0ELb0EE5__getEv, symObjAddr: 0x179A0, symBinAddr: 0x1000183F0, symSize: 0x10 }
  - { offset: 0x34FFC, size: 0x8, addend: 0x0, symName: __ZNSt3__16vectorIiNS_9allocatorIiEEE21_ConstructTransactionC1ERS3_m, symObjAddr: 0x179B0, symBinAddr: 0x100018400, symSize: 0x30 }
  - { offset: 0x35044, size: 0x8, addend: 0x0, symName: __ZNSt3__116allocator_traitsINS_9allocatorIiEEE9constructIiJRKiEEEvRS2_PT_DpOT0_, symObjAddr: 0x179E0, symBinAddr: 0x100018430, symSize: 0x30 }
  - { offset: 0x3509A, size: 0x8, addend: 0x0, symName: __ZNSt3__16vectorIiNS_9allocatorIiEEE21_ConstructTransactionD1Ev, symObjAddr: 0x17A10, symBinAddr: 0x100018460, symSize: 0x20 }
  - { offset: 0x350C4, size: 0x8, addend: 0x0, symName: __ZNSt3__16vectorIiNS_9allocatorIiEEE21_ConstructTransactionC2ERS3_m, symObjAddr: 0x17A30, symBinAddr: 0x100018480, symSize: 0x1A0 }
  - { offset: 0x3510C, size: 0x8, addend: 0x0, symName: __ZNKSt3__16vectorIiNS_9allocatorIiEEE19__annotate_increaseEm, symObjAddr: 0x17BD0, symBinAddr: 0x100018620, symSize: 0xD0 }
  - { offset: 0x35141, size: 0x8, addend: 0x0, symName: __ZNKSt3__16vectorIiNS_9allocatorIiEEE4sizeEv, symObjAddr: 0x17CA0, symBinAddr: 0x1000186F0, symSize: 0x90 }
  - { offset: 0x35167, size: 0x8, addend: 0x0, symName: __ZNSt3__116allocator_traitsINS_9allocatorIiEEE11__constructIiJRKiEEEvNS_17integral_constantIbLb1EEERS2_PT_DpOT0_, symObjAddr: 0x17D30, symBinAddr: 0x100018780, symSize: 0x30 }
  - { offset: 0x351C9, size: 0x8, addend: 0x0, symName: __ZNSt3__19allocatorIiE9constructIiJRKiEEEvPT_DpOT0_, symObjAddr: 0x17D60, symBinAddr: 0x1000187B0, symSize: 0xC0 }
  - { offset: 0x35221, size: 0x8, addend: 0x0, symName: __ZNSt3__16vectorIiNS_9allocatorIiEEE21_ConstructTransactionD2Ev, symObjAddr: 0x17E20, symBinAddr: 0x100018870, symSize: 0x220 }
  - { offset: 0x3524B, size: 0x8, addend: 0x0, symName: __ZNKSt3__16vectorIiNS_9allocatorIiEEE17__annotate_shrinkEm, symObjAddr: 0x18040, symBinAddr: 0x100018A90, symSize: 0xB0 }
  - { offset: 0x35280, size: 0x8, addend: 0x0, symName: __ZNSt3__113__vector_baseIiNS_9allocatorIiEEE5clearEv, symObjAddr: 0x180F0, symBinAddr: 0x100018B40, symSize: 0x50 }
  - { offset: 0x352A6, size: 0x8, addend: 0x0, symName: __ZNSt3__116allocator_traitsINS_9allocatorIiEEE10deallocateERS2_Pim, symObjAddr: 0x18140, symBinAddr: 0x100018B90, symSize: 0x30 }
  - { offset: 0x352E8, size: 0x8, addend: 0x0, symName: __ZNSt3__113__vector_baseIiNS_9allocatorIiEEE17__destruct_at_endEPi, symObjAddr: 0x18170, symBinAddr: 0x100018BC0, symSize: 0xF0 }
  - { offset: 0x3532F, size: 0x8, addend: 0x0, symName: __ZNSt3__116allocator_traitsINS_9allocatorIiEEE7destroyIiEEvRS2_PT_, symObjAddr: 0x18260, symBinAddr: 0x100018CB0, symSize: 0x30 }
  - { offset: 0x3536B, size: 0x8, addend: 0x0, symName: __ZNSt3__116allocator_traitsINS_9allocatorIiEEE9__destroyIiEEvNS_17integral_constantIbLb1EEERS2_PT_, symObjAddr: 0x18290, symBinAddr: 0x100018CE0, symSize: 0x30 }
  - { offset: 0x353B3, size: 0x8, addend: 0x0, symName: __ZNSt3__19allocatorIiE7destroyEPi, symObjAddr: 0x182C0, symBinAddr: 0x100018D10, symSize: 0x10 }
  - { offset: 0x353E8, size: 0x8, addend: 0x0, symName: __ZNSt3__19allocatorIiE10deallocateEPim, symObjAddr: 0x182D0, symBinAddr: 0x100018D20, symSize: 0x50 }
  - { offset: 0x3542C, size: 0x8, addend: 0x0, symName: __ZNSt3__16vectorIiNS_9allocatorIiEEED2Ev, symObjAddr: 0x18320, symBinAddr: 0x100018D70, symSize: 0x30 }
  - { offset: 0x35456, size: 0x8, addend: 0x0, symName: __ZNKSt3__16vectorIiNS_9allocatorIiEEE17__annotate_deleteEv, symObjAddr: 0x18350, symBinAddr: 0x100018DA0, symSize: 0xC0 }
  - { offset: 0x3547C, size: 0x8, addend: 0x0, symName: __ZNSt3__125uniform_real_distributionIfEC2Eff, symObjAddr: 0x18410, symBinAddr: 0x100018E60, symSize: 0x30 }
  - { offset: 0x354C4, size: 0x8, addend: 0x0, symName: __ZNSt3__125uniform_real_distributionIfE10param_typeC1Eff, symObjAddr: 0x18440, symBinAddr: 0x100018E90, symSize: 0x30 }
  - { offset: 0x3550C, size: 0x8, addend: 0x0, symName: __ZNSt3__125uniform_real_distributionIfE10param_typeC2Eff, symObjAddr: 0x18470, symBinAddr: 0x100018EC0, symSize: 0xE0 }
  - { offset: 0x35554, size: 0x8, addend: 0x0, symName: __ZNSt3__125uniform_real_distributionIfEclINS_23mersenne_twister_engineIjLm32ELm624ELm397ELm31ELj2567483615ELm11ELj4294967295ELm7ELj2636928640ELm15ELj4022730752ELm18ELj1812433253EEEEEfRT_RKNS1_10param_typeE, symObjAddr: 0x18550, symBinAddr: 0x100018FA0, symSize: 0x70 }
  - { offset: 0x355A3, size: 0x8, addend: 0x0, symName: __ZNKSt3__125uniform_real_distributionIfE10param_type1bEv, symObjAddr: 0x185C0, symBinAddr: 0x100019010, symSize: 0x70 }
  - { offset: 0x355C9, size: 0x8, addend: 0x0, symName: __ZNKSt3__125uniform_real_distributionIfE10param_type1aEv, symObjAddr: 0x18630, symBinAddr: 0x100019080, symSize: 0x70 }
  - { offset: 0x355EF, size: 0x8, addend: 0x0, symName: __ZNSt3__123mersenne_twister_engineIjLm32ELm624ELm397ELm31ELj2567483615ELm11ELj4294967295ELm7ELj2636928640ELm15ELj4022730752ELm18ELj1812433253EE3maxEv, symObjAddr: 0x187A0, symBinAddr: 0x1000191F0, symSize: 0x10 }
  - { offset: 0x35603, size: 0x8, addend: 0x0, symName: __ZNSt3__123mersenne_twister_engineIjLm32ELm624ELm397ELm31ELj2567483615ELm11ELj4294967295ELm7ELj2636928640ELm15ELj4022730752ELm18ELj1812433253EE3minEv, symObjAddr: 0x187B0, symBinAddr: 0x100019200, symSize: 0x10 }
  - { offset: 0x35617, size: 0x8, addend: 0x0, symName: __ZNSt3__123mersenne_twister_engineIjLm32ELm624ELm397ELm31ELj2567483615ELm11ELj4294967295ELm7ELj2636928640ELm15ELj4022730752ELm18ELj1812433253EEclEv, symObjAddr: 0x187C0, symBinAddr: 0x100019210, symSize: 0x500 }
  - { offset: 0x3568F, size: 0x8, addend: 0x0, symName: __ZNSt3__123mersenne_twister_engineIjLm32ELm624ELm397ELm31ELj2567483615ELm11ELj4294967295ELm7ELj2636928640ELm15ELj4022730752ELm18ELj1812433253EE8__rshiftILm1EEENS_9enable_ifIXltT_L_ZNS1_3_DtEEEjE4typeEj, symObjAddr: 0x18CC0, symBinAddr: 0x100019710, symSize: 0x10 }
  - { offset: 0x356BD, size: 0x8, addend: 0x0, symName: __ZNSt3__123mersenne_twister_engineIjLm32ELm624ELm397ELm31ELj2567483615ELm11ELj4294967295ELm7ELj2636928640ELm15ELj4022730752ELm18ELj1812433253EE8__rshiftILm11EEENS_9enable_ifIXltT_L_ZNS1_3_DtEEEjE4typeEj, symObjAddr: 0x18CD0, symBinAddr: 0x100019720, symSize: 0x10 }
  - { offset: 0x356EB, size: 0x8, addend: 0x0, symName: __ZNSt3__123mersenne_twister_engineIjLm32ELm624ELm397ELm31ELj2567483615ELm11ELj4294967295ELm7ELj2636928640ELm15ELj4022730752ELm18ELj1812433253EE8__lshiftILm7EEENS_9enable_ifIXltT_Lm32EEjE4typeEj, symObjAddr: 0x18CE0, symBinAddr: 0x100019730, symSize: 0x20 }
  - { offset: 0x35719, size: 0x8, addend: 0x0, symName: __ZNSt3__123mersenne_twister_engineIjLm32ELm624ELm397ELm31ELj2567483615ELm11ELj4294967295ELm7ELj2636928640ELm15ELj4022730752ELm18ELj1812433253EE8__lshiftILm15EEENS_9enable_ifIXltT_Lm32EEjE4typeEj, symObjAddr: 0x18D00, symBinAddr: 0x100019750, symSize: 0x20 }
  - { offset: 0x35747, size: 0x8, addend: 0x0, symName: __ZNSt3__123mersenne_twister_engineIjLm32ELm624ELm397ELm31ELj2567483615ELm11ELj4294967295ELm7ELj2636928640ELm15ELj4022730752ELm18ELj1812433253EE8__rshiftILm18EEENS_9enable_ifIXltT_L_ZNS1_3_DtEEEjE4typeEj, symObjAddr: 0x18D20, symBinAddr: 0x100019770, symSize: 0x10 }
  - { offset: 0x35775, size: 0x8, addend: 0x0, symName: __ZNKSt3__16vectorI4DiskNS_9allocatorIS1_EEE11__make_iterEPKS1_, symObjAddr: 0x18D30, symBinAddr: 0x100019780, symSize: 0x180 }
  - { offset: 0x357AE, size: 0x8, addend: 0x0, symName: __ZNSt3__111__wrap_iterIPK4DiskEC1ES3_, symObjAddr: 0x18EB0, symBinAddr: 0x100019900, symSize: 0x30 }
  - { offset: 0x357E7, size: 0x8, addend: 0x0, symName: __ZNSt3__111__wrap_iterIPK4DiskEC2ES3_, symObjAddr: 0x18EE0, symBinAddr: 0x100019930, symSize: 0x60 }
  - { offset: 0x35820, size: 0x8, addend: 0x0, symName: __ZNSt3__113__vector_baseIfNS_9allocatorIfEEE9__end_capEv, symObjAddr: 0x18F40, symBinAddr: 0x100019990, symSize: 0x20 }
  - { offset: 0x35846, size: 0x8, addend: 0x0, symName: __ZNSt3__16vectorIfNS_9allocatorIfEEE22__construct_one_at_endIJfEEEvDpOT_, symObjAddr: 0x18F60, symBinAddr: 0x1000199B0, symSize: 0x330 }
  - { offset: 0x3589C, size: 0x8, addend: 0x0, symName: __ZNSt3__16vectorIfNS_9allocatorIfEEE21__push_back_slow_pathIfEEvOT_, symObjAddr: 0x19290, symBinAddr: 0x100019CE0, symSize: 0x3A0 }
  - { offset: 0x35903, size: 0x8, addend: 0x0, symName: __ZNSt3__117__compressed_pairIPfNS_9allocatorIfEEE5firstEv, symObjAddr: 0x19630, symBinAddr: 0x10001A080, symSize: 0x20 }
  - { offset: 0x35929, size: 0x8, addend: 0x0, symName: __ZNSt3__122__compressed_pair_elemIPfLi0ELb0EE5__getEv, symObjAddr: 0x19650, symBinAddr: 0x10001A0A0, symSize: 0x10 }
  - { offset: 0x3596D, size: 0x8, addend: 0x0, symName: __ZNSt3__16vectorIfNS_9allocatorIfEEE21_ConstructTransactionC1ERS3_m, symObjAddr: 0x19660, symBinAddr: 0x10001A0B0, symSize: 0x30 }
  - { offset: 0x359B5, size: 0x8, addend: 0x0, symName: __ZNSt3__116allocator_traitsINS_9allocatorIfEEE9constructIfJfEEEvRS2_PT_DpOT0_, symObjAddr: 0x19690, symBinAddr: 0x10001A0E0, symSize: 0x30 }
  - { offset: 0x35A0B, size: 0x8, addend: 0x0, symName: __ZNSt3__16vectorIfNS_9allocatorIfEEE21_ConstructTransactionD1Ev, symObjAddr: 0x196C0, symBinAddr: 0x10001A110, symSize: 0x20 }
  - { offset: 0x35A35, size: 0x8, addend: 0x0, symName: __ZNSt3__16vectorIfNS_9allocatorIfEEE21_ConstructTransactionC2ERS3_m, symObjAddr: 0x196E0, symBinAddr: 0x10001A130, symSize: 0x1A0 }
  - { offset: 0x35A7D, size: 0x8, addend: 0x0, symName: __ZNKSt3__16vectorIfNS_9allocatorIfEEE19__annotate_increaseEm, symObjAddr: 0x19880, symBinAddr: 0x10001A2D0, symSize: 0xD0 }
  - { offset: 0x35AB2, size: 0x8, addend: 0x0, symName: __ZNSt3__116allocator_traitsINS_9allocatorIfEEE11__constructIfJfEEEvNS_17integral_constantIbLb1EEERS2_PT_DpOT0_, symObjAddr: 0x19950, symBinAddr: 0x10001A3A0, symSize: 0x30 }
  - { offset: 0x35B14, size: 0x8, addend: 0x0, symName: __ZNSt3__19allocatorIfE9constructIfJfEEEvPT_DpOT0_, symObjAddr: 0x19980, symBinAddr: 0x10001A3D0, symSize: 0xD0 }
  - { offset: 0x35B6C, size: 0x8, addend: 0x0, symName: __ZNSt3__16vectorIfNS_9allocatorIfEEE21_ConstructTransactionD2Ev, symObjAddr: 0x19A50, symBinAddr: 0x10001A4A0, symSize: 0x220 }
  - { offset: 0x35B96, size: 0x8, addend: 0x0, symName: __ZNKSt3__16vectorIfNS_9allocatorIfEEE17__annotate_shrinkEm, symObjAddr: 0x19C70, symBinAddr: 0x10001A6C0, symSize: 0xB0 }
  - { offset: 0x35BCB, size: 0x8, addend: 0x0, symName: __ZNKSt3__16vectorIfNS_9allocatorIfEEE11__recommendEm, symObjAddr: 0x19D20, symBinAddr: 0x10001A770, symSize: 0x300 }
  - { offset: 0x35C29, size: 0x8, addend: 0x0, symName: __ZNSt3__114__split_bufferIfRNS_9allocatorIfEEEC1EmmS3_, symObjAddr: 0x1A020, symBinAddr: 0x10001AA70, symSize: 0x40 }
  - { offset: 0x35C82, size: 0x8, addend: 0x0, symName: __ZNSt3__16vectorIfNS_9allocatorIfEEE26__swap_out_circular_bufferERNS_14__split_bufferIfRS2_EE, symObjAddr: 0x1A060, symBinAddr: 0x10001AAB0, symSize: 0x190 }
  - { offset: 0x35CB9, size: 0x8, addend: 0x0, symName: __ZNSt3__114__split_bufferIfRNS_9allocatorIfEEED1Ev, symObjAddr: 0x1A1F0, symBinAddr: 0x10001AC40, symSize: 0x20 }
  - { offset: 0x35CE5, size: 0x8, addend: 0x0, symName: __ZNKSt3__16vectorIfNS_9allocatorIfEEE8max_sizeEv, symObjAddr: 0x1A210, symBinAddr: 0x10001AC60, symSize: 0x2F0 }
  - { offset: 0x35D0E, size: 0x8, addend: 0x0, symName: __ZNSt3__116allocator_traitsINS_9allocatorIfEEE8max_sizeERKS2_, symObjAddr: 0x1A530, symBinAddr: 0x10001AF80, symSize: 0x20 }
  - { offset: 0x35D32, size: 0x8, addend: 0x0, symName: __ZNKSt3__113__vector_baseIfNS_9allocatorIfEEE7__allocEv, symObjAddr: 0x1A550, symBinAddr: 0x10001AFA0, symSize: 0x20 }
  - { offset: 0x35D58, size: 0x8, addend: 0x0, symName: __ZNSt3__116allocator_traitsINS_9allocatorIfEEE10__max_sizeENS_17integral_constantIbLb1EEERKS2_, symObjAddr: 0x1A570, symBinAddr: 0x10001AFC0, symSize: 0x20 }
  - { offset: 0x35D88, size: 0x8, addend: 0x0, symName: __ZNKSt3__19allocatorIfE8max_sizeEv, symObjAddr: 0x1A590, symBinAddr: 0x10001AFE0, symSize: 0x20 }
  - { offset: 0x35DAE, size: 0x8, addend: 0x0, symName: __ZNKSt3__117__compressed_pairIPfNS_9allocatorIfEEE6secondEv, symObjAddr: 0x1A5B0, symBinAddr: 0x10001B000, symSize: 0x20 }
  - { offset: 0x35DD4, size: 0x8, addend: 0x0, symName: __ZNKSt3__122__compressed_pair_elemINS_9allocatorIfEELi1ELb1EE5__getEv, symObjAddr: 0x1A5D0, symBinAddr: 0x10001B020, symSize: 0x10 }
  - { offset: 0x35DFA, size: 0x8, addend: 0x0, symName: __ZNSt3__114__split_bufferIfRNS_9allocatorIfEEEC2EmmS3_, symObjAddr: 0x1A750, symBinAddr: 0x10001B1A0, symSize: 0x350 }
  - { offset: 0x35E57, size: 0x8, addend: 0x0, symName: __ZNSt3__117__compressed_pairIPfRNS_9allocatorIfEEEC1IDnS4_EEOT_OT0_, symObjAddr: 0x1AAA0, symBinAddr: 0x10001B4F0, symSize: 0x30 }
  - { offset: 0x35EB1, size: 0x8, addend: 0x0, symName: __ZNSt3__116allocator_traitsINS_9allocatorIfEEE8allocateERS2_m, symObjAddr: 0x1AAD0, symBinAddr: 0x10001B520, symSize: 0x30 }
  - { offset: 0x35EE4, size: 0x8, addend: 0x0, symName: __ZNSt3__114__split_bufferIfRNS_9allocatorIfEEE7__allocEv, symObjAddr: 0x1AB00, symBinAddr: 0x10001B550, symSize: 0x20 }
  - { offset: 0x35F0A, size: 0x8, addend: 0x0, symName: __ZNSt3__114__split_bufferIfRNS_9allocatorIfEEE9__end_capEv, symObjAddr: 0x1AB20, symBinAddr: 0x10001B570, symSize: 0x20 }
  - { offset: 0x35F30, size: 0x8, addend: 0x0, symName: __ZNSt3__117__compressed_pairIPfRNS_9allocatorIfEEEC2IDnS4_EEOT_OT0_, symObjAddr: 0x1AB40, symBinAddr: 0x10001B590, symSize: 0x40 }
  - { offset: 0x35F8A, size: 0x8, addend: 0x0, symName: __ZNSt3__122__compressed_pair_elemIRNS_9allocatorIfEELi1ELb0EEC2IS3_vEEOT_, symObjAddr: 0x1AB80, symBinAddr: 0x10001B5D0, symSize: 0x60 }
  - { offset: 0x35FCD, size: 0x8, addend: 0x0, symName: __ZNSt3__19allocatorIfE8allocateEmPKv, symObjAddr: 0x1ABE0, symBinAddr: 0x10001B630, symSize: 0x60 }
  - { offset: 0x3600E, size: 0x8, addend: 0x0, symName: __ZNSt3__117__compressed_pairIPfRNS_9allocatorIfEEE6secondEv, symObjAddr: 0x1AC40, symBinAddr: 0x10001B690, symSize: 0x20 }
  - { offset: 0x36034, size: 0x8, addend: 0x0, symName: __ZNSt3__122__compressed_pair_elemIRNS_9allocatorIfEELi1ELb0EE5__getEv, symObjAddr: 0x1AC60, symBinAddr: 0x10001B6B0, symSize: 0x50 }
  - { offset: 0x3605A, size: 0x8, addend: 0x0, symName: __ZNSt3__117__compressed_pairIPfRNS_9allocatorIfEEE5firstEv, symObjAddr: 0x1ACB0, symBinAddr: 0x10001B700, symSize: 0x20 }
  - { offset: 0x36080, size: 0x8, addend: 0x0, symName: __ZNSt3__116allocator_traitsINS_9allocatorIfEEE46__construct_backward_with_exception_guaranteesIfEENS_9enable_ifIXaaooL_ZNS_17integral_constantIbLb1EE5valueEEntsr15__has_constructIS2_PT_S8_EE5valuesr31is_trivially_move_constructibleIS8_EE5valueEvE4typeERS2_S9_S9_RS9_, symObjAddr: 0x1ACD0, symBinAddr: 0x10001B720, symSize: 0xD0 }
  - { offset: 0x360E7, size: 0x8, addend: 0x0, symName: __ZNKSt3__16vectorIfNS_9allocatorIfEEE14__annotate_newEm, symObjAddr: 0x1AEA0, symBinAddr: 0x10001B8F0, symSize: 0xB0 }
  - { offset: 0x3611C, size: 0x8, addend: 0x0, symName: __ZNSt3__16vectorIfNS_9allocatorIfEEE26__invalidate_all_iteratorsEv, symObjAddr: 0x1AF50, symBinAddr: 0x10001B9A0, symSize: 0x10 }
  - { offset: 0x36144, size: 0x8, addend: 0x0, symName: __ZNSt3__114__split_bufferIfRNS_9allocatorIfEEED2Ev, symObjAddr: 0x1AF60, symBinAddr: 0x10001B9B0, symSize: 0xD0 }
  - { offset: 0x36170, size: 0x8, addend: 0x0, symName: __ZNSt3__114__split_bufferIfRNS_9allocatorIfEEE5clearEv, symObjAddr: 0x1B030, symBinAddr: 0x10001BA80, symSize: 0x60 }
  - { offset: 0x36196, size: 0x8, addend: 0x0, symName: __ZNKSt3__114__split_bufferIfRNS_9allocatorIfEEE8capacityEv, symObjAddr: 0x1B090, symBinAddr: 0x10001BAE0, symSize: 0x90 }
  - { offset: 0x361BC, size: 0x8, addend: 0x0, symName: __ZNSt3__114__split_bufferIfRNS_9allocatorIfEEE17__destruct_at_endEPf, symObjAddr: 0x1B120, symBinAddr: 0x10001BB70, symSize: 0x30 }
  - { offset: 0x361F1, size: 0x8, addend: 0x0, symName: __ZNSt3__114__split_bufferIfRNS_9allocatorIfEEE17__destruct_at_endEPfNS_17integral_constantIbLb0EEE, symObjAddr: 0x1B150, symBinAddr: 0x10001BBA0, symSize: 0xF0 }
  - { offset: 0x36233, size: 0x8, addend: 0x0, symName: __ZNKSt3__114__split_bufferIfRNS_9allocatorIfEEE9__end_capEv, symObjAddr: 0x1B240, symBinAddr: 0x10001BC90, symSize: 0x20 }
  - { offset: 0x36259, size: 0x8, addend: 0x0, symName: __ZNKSt3__117__compressed_pairIPfRNS_9allocatorIfEEE5firstEv, symObjAddr: 0x1B260, symBinAddr: 0x10001BCB0, symSize: 0x20 }
  - { offset: 0x3627F, size: 0x8, addend: 0x0, symName: __ZNSt3__16vectorIfNS_9allocatorIfEEE22__construct_one_at_endIJRKfEEEvDpOT_, symObjAddr: 0x1B280, symBinAddr: 0x10001BCD0, symSize: 0x330 }
  - { offset: 0x362D5, size: 0x8, addend: 0x0, symName: __ZNSt3__16vectorIfNS_9allocatorIfEEE21__push_back_slow_pathIRKfEEvOT_, symObjAddr: 0x1B5B0, symBinAddr: 0x10001C000, symSize: 0x3A0 }
  - { offset: 0x3633C, size: 0x8, addend: 0x0, symName: __ZNSt3__116allocator_traitsINS_9allocatorIfEEE9constructIfJRKfEEEvRS2_PT_DpOT0_, symObjAddr: 0x1B950, symBinAddr: 0x10001C3A0, symSize: 0x30 }
  - { offset: 0x36392, size: 0x8, addend: 0x0, symName: __ZNSt3__116allocator_traitsINS_9allocatorIfEEE11__constructIfJRKfEEEvNS_17integral_constantIbLb1EEERS2_PT_DpOT0_, symObjAddr: 0x1B980, symBinAddr: 0x10001C3D0, symSize: 0x30 }
  - { offset: 0x363F4, size: 0x8, addend: 0x0, symName: __ZNSt3__19allocatorIfE9constructIfJRKfEEEvPT_DpOT0_, symObjAddr: 0x1B9B0, symBinAddr: 0x10001C400, symSize: 0xD0 }
  - { offset: 0x3644C, size: 0x8, addend: 0x0, symName: __ZNSt3__19basic_iosIcNS_11char_traitsIcEEEC2Ev, symObjAddr: 0x1BA80, symBinAddr: 0x10001C4D0, symSize: 0x60 }
  - { offset: 0x36476, size: 0x8, addend: 0x0, symName: __ZNSt3__114basic_iostreamIcNS_11char_traitsIcEEEC2EPNS_15basic_streambufIcS2_EE, symObjAddr: 0x1BAE0, symBinAddr: 0x10001C530, symSize: 0x210 }
  - { offset: 0x364BC, size: 0x8, addend: 0x0, symName: __ZNSt3__115basic_stringbufIcNS_11char_traitsIcEENS_9allocatorIcEEEC1Ej, symObjAddr: 0x1BCF0, symBinAddr: 0x10001C740, symSize: 0x30 }
  - { offset: 0x364F6, size: 0x8, addend: 0x0, symName: __ZNSt3__18ios_baseC2Ev, symObjAddr: 0x1BD20, symBinAddr: 0x10001C770, symSize: 0x60 }
  - { offset: 0x36520, size: 0x8, addend: 0x0, symName: __ZNSt3__113basic_istreamIcNS_11char_traitsIcEEEC2EPNS_15basic_streambufIcS2_EE, symObjAddr: 0x1BD80, symBinAddr: 0x10001C7D0, symSize: 0x1D0 }
  - { offset: 0x36566, size: 0x8, addend: 0x0, symName: __ZNSt3__113basic_ostreamIcNS_11char_traitsIcEEEC2Ev, symObjAddr: 0x1BF50, symBinAddr: 0x10001C9A0, symSize: 0x140 }
  - { offset: 0x3659D, size: 0x8, addend: 0x0, symName: __ZNSt3__19basic_iosIcNS_11char_traitsIcEEE4initEPNS_15basic_streambufIcS2_EE, symObjAddr: 0x1C090, symBinAddr: 0x10001CAE0, symSize: 0xD0 }
  - { offset: 0x365D4, size: 0x8, addend: 0x0, symName: __ZNSt3__115basic_stringbufIcNS_11char_traitsIcEENS_9allocatorIcEEEC2Ej, symObjAddr: 0x1C160, symBinAddr: 0x10001CBB0, symSize: 0x100 }
  - { offset: 0x3660E, size: 0x8, addend: 0x0, symName: __ZNSt3__18ios_base9precisionEl, symObjAddr: 0x1C260, symBinAddr: 0x10001CCB0, symSize: 0xA0 }
  - { offset: 0x36655, size: 0x8, addend: 0x0, symName: __ZNKSt3__115basic_stringbufIcNS_11char_traitsIcEENS_9allocatorIcEEE3strEv, symObjAddr: 0x1C300, symBinAddr: 0x10001CD50, symSize: 0x460 }
  - { offset: 0x3667E, size: 0x8, addend: 0x0, symName: __ZNKSt3__112basic_stringIcNS_11char_traitsIcEENS_9allocatorIcEEE13get_allocatorEv, symObjAddr: 0x1C760, symBinAddr: 0x10001D1B0, symSize: 0x20 }
  - { offset: 0x366A4, size: 0x8, addend: 0x0, symName: __ZNSt3__112basic_stringIcNS_11char_traitsIcEENS_9allocatorIcEEEC1IPcvEET_S8_RKS4_, symObjAddr: 0x1C780, symBinAddr: 0x10001D1D0, symSize: 0x40 }
  - { offset: 0x36707, size: 0x8, addend: 0x0, symName: __ZNSt3__112basic_stringIcNS_11char_traitsIcEENS_9allocatorIcEEEC1ERKS4_, symObjAddr: 0x1C7C0, symBinAddr: 0x10001D210, symSize: 0x30 }
  - { offset: 0x36742, size: 0x8, addend: 0x0, symName: __ZNKSt3__112basic_stringIcNS_11char_traitsIcEENS_9allocatorIcEEE7__allocEv, symObjAddr: 0x1C7F0, symBinAddr: 0x10001D240, symSize: 0x20 }
  - { offset: 0x36768, size: 0x8, addend: 0x0, symName: __ZNKSt3__117__compressed_pairINS_12basic_stringIcNS_11char_traitsIcEENS_9allocatorIcEEE5__repES5_E6secondEv, symObjAddr: 0x1C810, symBinAddr: 0x10001D260, symSize: 0x20 }
  - { offset: 0x3678E, size: 0x8, addend: 0x0, symName: __ZNKSt3__122__compressed_pair_elemINS_9allocatorIcEELi1ELb1EE5__getEv, symObjAddr: 0x1C830, symBinAddr: 0x10001D280, symSize: 0x10 }
  - { offset: 0x367B4, size: 0x8, addend: 0x0, symName: __ZNSt3__112basic_stringIcNS_11char_traitsIcEENS_9allocatorIcEEEC2IPcvEET_S8_RKS4_, symObjAddr: 0x1C840, symBinAddr: 0x10001D290, symSize: 0x170 }
  - { offset: 0x3681B, size: 0x8, addend: 0x0, symName: __ZNSt3__117__compressed_pairINS_12basic_stringIcNS_11char_traitsIcEENS_9allocatorIcEEE5__repES5_EC1INS_18__default_init_tagERKS5_EEOT_OT0_, symObjAddr: 0x1C9B0, symBinAddr: 0x10001D400, symSize: 0x30 }
  - { offset: 0x36875, size: 0x8, addend: 0x0, symName: __ZNSt3__112basic_stringIcNS_11char_traitsIcEENS_9allocatorIcEEE6__initIPcEENS_9enable_ifIXsr27__is_cpp17_forward_iteratorIT_EE5valueEvE4typeES9_S9_, symObjAddr: 0x1C9E0, symBinAddr: 0x10001D430, symSize: 0x300 }
  - { offset: 0x36909, size: 0x8, addend: 0x0, symName: __ZNSt3__117__compressed_pairINS_12basic_stringIcNS_11char_traitsIcEENS_9allocatorIcEEE5__repES5_EC2INS_18__default_init_tagERKS5_EEOT_OT0_, symObjAddr: 0x1CCE0, symBinAddr: 0x10001D730, symSize: 0x40 }
  - { offset: 0x36963, size: 0x8, addend: 0x0, symName: __ZNSt3__122__compressed_pair_elemINS_9allocatorIcEELi1ELb1EEC2IRKS2_vEEOT_, symObjAddr: 0x1CD20, symBinAddr: 0x10001D770, symSize: 0x10 }
  - { offset: 0x369A6, size: 0x8, addend: 0x0, symName: __ZNKSt3__112basic_stringIcNS_11char_traitsIcEENS_9allocatorIcEEE8max_sizeEv, symObjAddr: 0x1CD60, symBinAddr: 0x10001D7B0, symSize: 0x30 }
  - { offset: 0x369DE, size: 0x8, addend: 0x0, symName: __ZNSt3__112basic_stringIcNS_11char_traitsIcEENS_9allocatorIcEEE16__set_short_sizeEm, symObjAddr: 0x1CD90, symBinAddr: 0x10001D7E0, symSize: 0x80 }
  - { offset: 0x36A13, size: 0x8, addend: 0x0, symName: __ZNSt3__112basic_stringIcNS_11char_traitsIcEENS_9allocatorIcEEE11__recommendEm, symObjAddr: 0x1CE10, symBinAddr: 0x10001D860, symSize: 0x70 }
  - { offset: 0x36A47, size: 0x8, addend: 0x0, symName: __ZNSt3__116allocator_traitsINS_9allocatorIcEEE8allocateERS2_m, symObjAddr: 0x1CE80, symBinAddr: 0x10001D8D0, symSize: 0x30 }
  - { offset: 0x36A7A, size: 0x8, addend: 0x0, symName: __ZNSt3__112basic_stringIcNS_11char_traitsIcEENS_9allocatorIcEEE7__allocEv, symObjAddr: 0x1CEB0, symBinAddr: 0x10001D900, symSize: 0x20 }
  - { offset: 0x36AA0, size: 0x8, addend: 0x0, symName: __ZNSt3__112basic_stringIcNS_11char_traitsIcEENS_9allocatorIcEEE18__set_long_pointerEPc, symObjAddr: 0x1CED0, symBinAddr: 0x10001D920, symSize: 0x60 }
  - { offset: 0x36AD5, size: 0x8, addend: 0x0, symName: __ZNSt3__112basic_stringIcNS_11char_traitsIcEENS_9allocatorIcEEE14__set_long_capEm, symObjAddr: 0x1CF30, symBinAddr: 0x10001D980, symSize: 0x60 }
  - { offset: 0x36B0A, size: 0x8, addend: 0x0, symName: __ZNSt3__112basic_stringIcNS_11char_traitsIcEENS_9allocatorIcEEE15__set_long_sizeEm, symObjAddr: 0x1CF90, symBinAddr: 0x10001D9E0, symSize: 0x60 }
  - { offset: 0x36B3F, size: 0x8, addend: 0x0, symName: __ZNSt3__111char_traitsIcE6assignERcRKc, symObjAddr: 0x1CFF0, symBinAddr: 0x10001DA40, symSize: 0xB0 }
  - { offset: 0x36B72, size: 0x8, addend: 0x0, symName: __ZNSt3__116allocator_traitsINS_9allocatorIcEEE8max_sizeERKS2_, symObjAddr: 0x1D0C0, symBinAddr: 0x10001DB10, symSize: 0x20 }
  - { offset: 0x36B96, size: 0x8, addend: 0x0, symName: __ZNSt3__116allocator_traitsINS_9allocatorIcEEE10__max_sizeENS_17integral_constantIbLb1EEERKS2_, symObjAddr: 0x1D0E0, symBinAddr: 0x10001DB30, symSize: 0x20 }
  - { offset: 0x36BC6, size: 0x8, addend: 0x0, symName: __ZNKSt3__19allocatorIcE8max_sizeEv, symObjAddr: 0x1D100, symBinAddr: 0x10001DB50, symSize: 0x20 }
  - { offset: 0x36BEC, size: 0x8, addend: 0x0, symName: __ZNSt3__112basic_stringIcNS_11char_traitsIcEENS_9allocatorIcEEE10__align_itILm16EEEmm, symObjAddr: 0x1D120, symBinAddr: 0x10001DB70, symSize: 0x20 }
  - { offset: 0x36C1A, size: 0x8, addend: 0x0, symName: __ZNSt3__19allocatorIcE8allocateEmPKv, symObjAddr: 0x1D140, symBinAddr: 0x10001DB90, symSize: 0x60 }
  - { offset: 0x36C5B, size: 0x8, addend: 0x0, symName: __ZNSt3__117__compressed_pairINS_12basic_stringIcNS_11char_traitsIcEENS_9allocatorIcEEE5__repES5_E6secondEv, symObjAddr: 0x1D1A0, symBinAddr: 0x10001DBF0, symSize: 0x20 }
  - { offset: 0x36C81, size: 0x8, addend: 0x0, symName: __ZNSt3__122__compressed_pair_elemINS_9allocatorIcEELi1ELb1EE5__getEv, symObjAddr: 0x1D1C0, symBinAddr: 0x10001DC10, symSize: 0x10 }
  - { offset: 0x36CA7, size: 0x8, addend: 0x0, symName: __ZNSt3__112basic_stringIcNS_11char_traitsIcEENS_9allocatorIcEEEC2ERKS4_, symObjAddr: 0x1D1D0, symBinAddr: 0x10001DC20, symSize: 0x1E0 }
  - { offset: 0x36CE4, size: 0x8, addend: 0x0, symName: __ZNSt3__112basic_stringIcNS_11char_traitsIcEENS_9allocatorIcEEEC1EOS5_, symObjAddr: 0x1D3B0, symBinAddr: 0x10001DE00, symSize: 0x30 }
  - { offset: 0x36D1F, size: 0x8, addend: 0x0, symName: __ZNSt3__112basic_stringIcNS_11char_traitsIcEENS_9allocatorIcEEEC2EOS5_, symObjAddr: 0x1D3E0, symBinAddr: 0x10001DE30, symSize: 0x40 }
  - { offset: 0x36D5A, size: 0x8, addend: 0x0, symName: __ZNSt3__111char_traitsIcE6lengthEPKc, symObjAddr: 0x1DCD0, symBinAddr: 0x10001E720, symSize: 0x20 }
  - { offset: 0x36D9C, size: 0x8, addend: 0x0, symName: __ZNKSt3__113basic_ostreamIcNS_11char_traitsIcEEE6sentrycvbEv, symObjAddr: 0x1DCF0, symBinAddr: 0x10001E740, symSize: 0x70 }
  - { offset: 0x36DC2, size: 0x8, addend: 0x0, symName: __ZNSt3__119ostreambuf_iteratorIcNS_11char_traitsIcEEEC1ERNS_13basic_ostreamIcS2_EE, symObjAddr: 0x1E500, symBinAddr: 0x10001EF50, symSize: 0x30 }
  - { offset: 0x36DFB, size: 0x8, addend: 0x0, symName: __ZNKSt3__18ios_base5flagsEv, symObjAddr: 0x1E530, symBinAddr: 0x10001EF80, symSize: 0x70 }
  - { offset: 0x36E23, size: 0x8, addend: 0x0, symName: __ZNKSt3__19basic_iosIcNS_11char_traitsIcEEE4fillEv, symObjAddr: 0x1E5A0, symBinAddr: 0x10001EFF0, symSize: 0x160 }
  - { offset: 0x36E4B, size: 0x8, addend: 0x0, symName: __ZNKSt3__119ostreambuf_iteratorIcNS_11char_traitsIcEEE6failedEv, symObjAddr: 0x1E700, symBinAddr: 0x10001F150, symSize: 0x50 }
  - { offset: 0x36E71, size: 0x8, addend: 0x0, symName: __ZNSt3__19basic_iosIcNS_11char_traitsIcEEE8setstateEj, symObjAddr: 0x1E750, symBinAddr: 0x10001F1A0, symSize: 0x30 }
  - { offset: 0x36EA6, size: 0x8, addend: 0x0, symName: __ZNKSt3__18ios_base5widthEv, symObjAddr: 0x1E780, symBinAddr: 0x10001F1D0, symSize: 0x50 }
  - { offset: 0x36ECE, size: 0x8, addend: 0x0, symName: __ZNSt3__115basic_streambufIcNS_11char_traitsIcEEE5sputnEPKcl, symObjAddr: 0x1E7D0, symBinAddr: 0x10001F220, symSize: 0xA0 }
  - { offset: 0x36F12, size: 0x8, addend: 0x0, symName: __ZNSt3__112basic_stringIcNS_11char_traitsIcEENS_9allocatorIcEEEC1Emc, symObjAddr: 0x1E870, symBinAddr: 0x10001F2C0, symSize: 0x30 }
  - { offset: 0x36F5C, size: 0x8, addend: 0x0, symName: __ZNSt3__18ios_base5widthEl, symObjAddr: 0x1E8A0, symBinAddr: 0x10001F2F0, symSize: 0xA0 }
  - { offset: 0x36FA3, size: 0x8, addend: 0x0, symName: __ZNSt3__112basic_stringIcNS_11char_traitsIcEENS_9allocatorIcEEEC2Emc, symObjAddr: 0x1E940, symBinAddr: 0x10001F390, symSize: 0x170 }
  - { offset: 0x36FF0, size: 0x8, addend: 0x0, symName: __ZNSt3__119ostreambuf_iteratorIcNS_11char_traitsIcEEEC2ERNS_13basic_ostreamIcS2_EE, symObjAddr: 0x1EAB0, symBinAddr: 0x10001F500, symSize: 0xF0 }
  - { offset: 0x37029, size: 0x8, addend: 0x0, symName: __ZNKSt3__19basic_iosIcNS_11char_traitsIcEEE5rdbufEv, symObjAddr: 0x1EBA0, symBinAddr: 0x10001F5F0, symSize: 0x20 }
  - { offset: 0x37051, size: 0x8, addend: 0x0, symName: __ZNKSt3__18ios_base5rdbufEv, symObjAddr: 0x1EBC0, symBinAddr: 0x10001F610, symSize: 0x50 }
  - { offset: 0x37077, size: 0x8, addend: 0x0, symName: __ZNKSt3__19basic_iosIcNS_11char_traitsIcEEE5widenEc, symObjAddr: 0x1EC10, symBinAddr: 0x10001F660, symSize: 0x260 }
  - { offset: 0x370F7, size: 0x8, addend: 0x0, symName: __ZNKSt3__15ctypeIcE5widenEc, symObjAddr: 0x1EEA0, symBinAddr: 0x10001F8F0, symSize: 0xA0 }
  - { offset: 0x3712C, size: 0x8, addend: 0x0, symName: __ZNSt3__18ios_base8setstateEj, symObjAddr: 0x1EF40, symBinAddr: 0x10001F990, symSize: 0x80 }
  - { offset: 0x37163, size: 0x8, addend: 0x0, symName: __ZNSt3__112basic_stringIcNS_11char_traitsIcEENS_9allocatorIcEEEC2IDnEEPKc, symObjAddr: 0x1EFC0, symBinAddr: 0x10001FA10, symSize: 0x180 }
  - { offset: 0x371A3, size: 0x8, addend: 0x0, symName: __ZNSt3__123mersenne_twister_engineIjLm32ELm624ELm397ELm31ELj2567483615ELm11ELj4294967295ELm7ELj2636928640ELm15ELj4022730752ELm18ELj1812433253EEC2Ej, symObjAddr: 0x1F140, symBinAddr: 0x10001FB90, symSize: 0x30 }
  - { offset: 0x371DC, size: 0x8, addend: 0x0, symName: __ZNSt3__123mersenne_twister_engineIjLm32ELm624ELm397ELm31ELj2567483615ELm11ELj4294967295ELm7ELj2636928640ELm15ELj4022730752ELm18ELj1812433253EE4seedEj, symObjAddr: 0x1F170, symBinAddr: 0x10001FBC0, symSize: 0x220 }
  - { offset: 0x37232, size: 0x8, addend: 0x0, symName: __ZNSt3__123mersenne_twister_engineIjLm32ELm624ELm397ELm31ELj2567483615ELm11ELj4294967295ELm7ELj2636928640ELm15ELj4022730752ELm18ELj1812433253EE8__rshiftILm30EEENS_9enable_ifIXltT_L_ZNS1_3_DtEEEjE4typeEj, symObjAddr: 0x1F390, symBinAddr: 0x10001FDE0, symSize: 0x10 }
  - { offset: 0x37260, size: 0x8, addend: 0x0, symName: __ZNSt3__14__fs10filesystem4pathC2IA35_cvEERKT_NS2_6formatE, symObjAddr: 0x1F3A0, symBinAddr: 0x10001FDF0, symSize: 0x60 }
  - { offset: 0x372B5, size: 0x8, addend: 0x0, symName: __ZNSt3__14__fs10filesystem8_PathCVTIcE15__append_sourceIA35_cEEvRNS_12basic_stringIcNS_11char_traitsIcEENS_9allocatorIcEEEERKT_, symObjAddr: 0x1F400, symBinAddr: 0x10001FE50, symSize: 0x50 }
  - { offset: 0x372F1, size: 0x8, addend: 0x0, symName: __ZNSt3__14__fs10filesystem8_PathCVTIcE14__append_rangeIPKcEENS_9enable_ifIXsr27__is_cpp17_forward_iteratorIT_EE5valueEvE4typeERNS_12basic_stringIcNS_11char_traitsIcEENS_9allocatorIcEEEES8_S8_, symObjAddr: 0x1F450, symBinAddr: 0x10001FEA0, symSize: 0x30 }
  - { offset: 0x3733C, size: 0x8, addend: 0x0, symName: __ZNSt3__14__fs10filesystem24__is_pathable_char_arrayIA35_cPccLb1EE13__range_beginEPKc, symObjAddr: 0x1F480, symBinAddr: 0x10001FED0, symSize: 0x10 }
  - { offset: 0x37360, size: 0x8, addend: 0x0, symName: __ZNSt3__14__fs10filesystem24__is_pathable_char_arrayIA35_cPccLb1EE11__range_endEPKc, symObjAddr: 0x1F490, symBinAddr: 0x10001FEE0, symSize: 0x90 }
  - { offset: 0x373B0, size: 0x8, addend: 0x0, symName: __ZNSt3__112basic_stringIcNS_11char_traitsIcEENS_9allocatorIcEEE23__append_forward_unsafeIPKcEERS5_T_SA_, symObjAddr: 0x1F520, symBinAddr: 0x10001FF70, symSize: 0x590 }
  - { offset: 0x37494, size: 0x8, addend: 0x0, symName: __ZNSt3__112basic_stringIcNS_11char_traitsIcEENS_9allocatorIcEEEC1IPKcvEET_S9_RKS4_, symObjAddr: 0x1FB20, symBinAddr: 0x100020570, symSize: 0x40 }
  - { offset: 0x374F7, size: 0x8, addend: 0x0, symName: __ZNKSt3__112basic_stringIcNS_11char_traitsIcEENS_9allocatorIcEEE4dataEv, symObjAddr: 0x1FB60, symBinAddr: 0x1000205B0, symSize: 0x30 }
  - { offset: 0x3751D, size: 0x8, addend: 0x0, symName: __ZNSt3__112basic_stringIcNS_11char_traitsIcEENS_9allocatorIcEEE10__set_sizeEm, symObjAddr: 0x1FB90, symBinAddr: 0x1000205E0, symSize: 0x50 }
  - { offset: 0x37552, size: 0x8, addend: 0x0, symName: __ZNSt3__112basic_stringIcNS_11char_traitsIcEENS_9allocatorIcEEEC2IPKcvEET_S9_RKS4_, symObjAddr: 0x1FC00, symBinAddr: 0x100020650, symSize: 0x170 }
  - { offset: 0x375B9, size: 0x8, addend: 0x0, symName: __ZNSt3__112basic_stringIcNS_11char_traitsIcEENS_9allocatorIcEEE6__initIPKcEENS_9enable_ifIXsr27__is_cpp17_forward_iteratorIT_EE5valueEvE4typeESA_SA_, symObjAddr: 0x1FD70, symBinAddr: 0x1000207C0, symSize: 0x300 }
  - { offset: 0x3764D, size: 0x8, addend: 0x0, symName: __ZNKSt3__112basic_stringIcNS_11char_traitsIcEENS_9allocatorIcEEE13__get_pointerEv, symObjAddr: 0x20080, symBinAddr: 0x100020AD0, symSize: 0x50 }
  - { offset: 0x37673, size: 0x8, addend: 0x0, symName: __ZNKSt3__112basic_stringIcNS_11char_traitsIcEENS_9allocatorIcEEE18__get_long_pointerEv, symObjAddr: 0x200D0, symBinAddr: 0x100020B20, symSize: 0x50 }
  - { offset: 0x37699, size: 0x8, addend: 0x0, symName: __ZNKSt3__112basic_stringIcNS_11char_traitsIcEENS_9allocatorIcEEE19__get_short_pointerEv, symObjAddr: 0x20120, symBinAddr: 0x100020B70, symSize: 0x30 }
  - { offset: 0x376C5, size: 0x8, addend: 0x0, symName: __ZNSt3__114pointer_traitsIPKcE10pointer_toERS1_, symObjAddr: 0x20150, symBinAddr: 0x100020BA0, symSize: 0x10 }
  - { offset: 0x376E9, size: 0x8, addend: 0x0, symName: __ZNSt3__16vectorI4DiskNS_9allocatorIS1_EEEC2Em, symObjAddr: 0x20160, symBinAddr: 0x100020BB0, symSize: 0x80 }
  - { offset: 0x37724, size: 0x8, addend: 0x0, symName: __ZNSt3__113__vector_baseI4DiskNS_9allocatorIS1_EEEC2Ev, symObjAddr: 0x201E0, symBinAddr: 0x100020C30, symSize: 0x2F0 }
  - { offset: 0x37751, size: 0x8, addend: 0x0, symName: __ZNSt3__16vectorI4DiskNS_9allocatorIS1_EEE11__vallocateEm, symObjAddr: 0x204D0, symBinAddr: 0x100020F20, symSize: 0x160 }
  - { offset: 0x37788, size: 0x8, addend: 0x0, symName: __ZNSt3__16vectorI4DiskNS_9allocatorIS1_EEE18__construct_at_endEm, symObjAddr: 0x20630, symBinAddr: 0x100021080, symSize: 0x3E0 }
  - { offset: 0x377D5, size: 0x8, addend: 0x0, symName: __ZNSt3__113__vector_baseI4DiskNS_9allocatorIS1_EEED2Ev, symObjAddr: 0x20A10, symBinAddr: 0x100021460, symSize: 0xB0 }
  - { offset: 0x37801, size: 0x8, addend: 0x0, symName: __ZNSt3__117__compressed_pairIP4DiskNS_9allocatorIS1_EEEC1IDnNS_18__default_init_tagEEEOT_OT0_, symObjAddr: 0x20AC0, symBinAddr: 0x100021510, symSize: 0x30 }
  - { offset: 0x3785B, size: 0x8, addend: 0x0, symName: __ZNSt3__117__compressed_pairIP4DiskNS_9allocatorIS1_EEEC2IDnNS_18__default_init_tagEEEOT_OT0_, symObjAddr: 0x20AF0, symBinAddr: 0x100021540, symSize: 0x40 }
  - { offset: 0x378B5, size: 0x8, addend: 0x0, symName: __ZNSt3__122__compressed_pair_elemIP4DiskLi0ELb0EEC2IDnvEEOT_, symObjAddr: 0x20B30, symBinAddr: 0x100021580, symSize: 0x50 }
  - { offset: 0x378F8, size: 0x8, addend: 0x0, symName: __ZNSt3__122__compressed_pair_elemINS_9allocatorI4DiskEELi1ELb1EEC2ENS_18__default_init_tagE, symObjAddr: 0x20B80, symBinAddr: 0x1000215D0, symSize: 0x20 }
  - { offset: 0x3792E, size: 0x8, addend: 0x0, symName: __ZNSt3__19allocatorI4DiskEC2Ev, symObjAddr: 0x20BA0, symBinAddr: 0x1000215F0, symSize: 0x10 }
  - { offset: 0x37958, size: 0x8, addend: 0x0, symName: __ZNKSt3__16vectorI4DiskNS_9allocatorIS1_EEE8max_sizeEv, symObjAddr: 0x20BB0, symBinAddr: 0x100021600, symSize: 0x2F0 }
  - { offset: 0x37981, size: 0x8, addend: 0x0, symName: __ZNSt3__116allocator_traitsINS_9allocatorI4DiskEEE8allocateERS3_m, symObjAddr: 0x20EA0, symBinAddr: 0x1000218F0, symSize: 0x30 }
  - { offset: 0x379B4, size: 0x8, addend: 0x0, symName: __ZNSt3__113__vector_baseI4DiskNS_9allocatorIS1_EEE7__allocEv, symObjAddr: 0x20ED0, symBinAddr: 0x100021920, symSize: 0x20 }
  - { offset: 0x379DA, size: 0x8, addend: 0x0, symName: __ZNSt3__113__vector_baseI4DiskNS_9allocatorIS1_EEE9__end_capEv, symObjAddr: 0x20EF0, symBinAddr: 0x100021940, symSize: 0x20 }
  - { offset: 0x37A00, size: 0x8, addend: 0x0, symName: __ZNKSt3__16vectorI4DiskNS_9allocatorIS1_EEE14__annotate_newEm, symObjAddr: 0x20F10, symBinAddr: 0x100021960, symSize: 0xC0 }
  - { offset: 0x37A35, size: 0x8, addend: 0x0, symName: __ZNSt3__116allocator_traitsINS_9allocatorI4DiskEEE8max_sizeERKS3_, symObjAddr: 0x20FD0, symBinAddr: 0x100021A20, symSize: 0x20 }
  - { offset: 0x37A59, size: 0x8, addend: 0x0, symName: __ZNKSt3__113__vector_baseI4DiskNS_9allocatorIS1_EEE7__allocEv, symObjAddr: 0x20FF0, symBinAddr: 0x100021A40, symSize: 0x20 }
  - { offset: 0x37A7F, size: 0x8, addend: 0x0, symName: __ZNSt3__116allocator_traitsINS_9allocatorI4DiskEEE10__max_sizeENS_17integral_constantIbLb1EEERKS3_, symObjAddr: 0x21010, symBinAddr: 0x100021A60, symSize: 0x20 }
  - { offset: 0x37AAF, size: 0x8, addend: 0x0, symName: __ZNKSt3__19allocatorI4DiskE8max_sizeEv, symObjAddr: 0x21030, symBinAddr: 0x100021A80, symSize: 0x20 }
  - { offset: 0x37AD5, size: 0x8, addend: 0x0, symName: __ZNKSt3__117__compressed_pairIP4DiskNS_9allocatorIS1_EEE6secondEv, symObjAddr: 0x21050, symBinAddr: 0x100021AA0, symSize: 0x20 }
  - { offset: 0x37AFB, size: 0x8, addend: 0x0, symName: __ZNKSt3__122__compressed_pair_elemINS_9allocatorI4DiskEELi1ELb1EE5__getEv, symObjAddr: 0x21070, symBinAddr: 0x100021AC0, symSize: 0x10 }
  - { offset: 0x37B21, size: 0x8, addend: 0x0, symName: __ZNSt3__19allocatorI4DiskE8allocateEmPKv, symObjAddr: 0x21080, symBinAddr: 0x100021AD0, symSize: 0x60 }
  - { offset: 0x37B62, size: 0x8, addend: 0x0, symName: __ZNSt3__117__compressed_pairIP4DiskNS_9allocatorIS1_EEE6secondEv, symObjAddr: 0x210E0, symBinAddr: 0x100021B30, symSize: 0x20 }
  - { offset: 0x37B88, size: 0x8, addend: 0x0, symName: __ZNSt3__122__compressed_pair_elemINS_9allocatorI4DiskEELi1ELb1EE5__getEv, symObjAddr: 0x21100, symBinAddr: 0x100021B50, symSize: 0x10 }
  - { offset: 0x37BAE, size: 0x8, addend: 0x0, symName: __ZNSt3__117__compressed_pairIP4DiskNS_9allocatorIS1_EEE5firstEv, symObjAddr: 0x21110, symBinAddr: 0x100021B60, symSize: 0x20 }
  - { offset: 0x37BD4, size: 0x8, addend: 0x0, symName: __ZNSt3__122__compressed_pair_elemIP4DiskLi0ELb0EE5__getEv, symObjAddr: 0x21130, symBinAddr: 0x100021B80, symSize: 0x10 }
  - { offset: 0x37BFA, size: 0x8, addend: 0x0, symName: __ZNKSt3__16vectorI4DiskNS_9allocatorIS1_EEE31__annotate_contiguous_containerEPKvS6_S6_S6_, symObjAddr: 0x21140, symBinAddr: 0x100021B90, symSize: 0x50 }
  - { offset: 0x37C5C, size: 0x8, addend: 0x0, symName: __ZNKSt3__16vectorI4DiskNS_9allocatorIS1_EEE4dataEv, symObjAddr: 0x21190, symBinAddr: 0x100021BE0, symSize: 0x50 }
  - { offset: 0x37C82, size: 0x8, addend: 0x0, symName: __ZNKSt3__16vectorI4DiskNS_9allocatorIS1_EEE8capacityEv, symObjAddr: 0x211E0, symBinAddr: 0x100021C30, symSize: 0x20 }
  - { offset: 0x37CA8, size: 0x8, addend: 0x0, symName: __ZNKSt3__113__vector_baseI4DiskNS_9allocatorIS1_EEE8capacityEv, symObjAddr: 0x21210, symBinAddr: 0x100021C60, symSize: 0xA0 }
  - { offset: 0x37CCE, size: 0x8, addend: 0x0, symName: __ZNKSt3__113__vector_baseI4DiskNS_9allocatorIS1_EEE9__end_capEv, symObjAddr: 0x212B0, symBinAddr: 0x100021D00, symSize: 0x20 }
  - { offset: 0x37CF4, size: 0x8, addend: 0x0, symName: __ZNKSt3__117__compressed_pairIP4DiskNS_9allocatorIS1_EEE5firstEv, symObjAddr: 0x212D0, symBinAddr: 0x100021D20, symSize: 0x20 }
  - { offset: 0x37D1A, size: 0x8, addend: 0x0, symName: __ZNKSt3__122__compressed_pair_elemIP4DiskLi0ELb0EE5__getEv, symObjAddr: 0x212F0, symBinAddr: 0x100021D40, symSize: 0x10 }
  - { offset: 0x37D5E, size: 0x8, addend: 0x0, symName: __ZNSt3__16vectorI4DiskNS_9allocatorIS1_EEE21_ConstructTransactionC1ERS4_m, symObjAddr: 0x21300, symBinAddr: 0x100021D50, symSize: 0x30 }
  - { offset: 0x37DA6, size: 0x8, addend: 0x0, symName: __ZNSt3__116allocator_traitsINS_9allocatorI4DiskEEE9constructIS2_JEEEvRS3_PT_DpOT0_, symObjAddr: 0x21330, symBinAddr: 0x100021D80, symSize: 0x30 }
  - { offset: 0x37DE7, size: 0x8, addend: 0x0, symName: __ZNSt3__16vectorI4DiskNS_9allocatorIS1_EEE21_ConstructTransactionD1Ev, symObjAddr: 0x21360, symBinAddr: 0x100021DB0, symSize: 0x20 }
  - { offset: 0x37E11, size: 0x8, addend: 0x0, symName: __ZNSt3__16vectorI4DiskNS_9allocatorIS1_EEE21_ConstructTransactionC2ERS4_m, symObjAddr: 0x21380, symBinAddr: 0x100021DD0, symSize: 0x190 }
  - { offset: 0x37E59, size: 0x8, addend: 0x0, symName: __ZNKSt3__16vectorI4DiskNS_9allocatorIS1_EEE19__annotate_increaseEm, symObjAddr: 0x21510, symBinAddr: 0x100021F60, symSize: 0xE0 }
  - { offset: 0x37E8E, size: 0x8, addend: 0x0, symName: __ZNKSt3__16vectorI4DiskNS_9allocatorIS1_EEE4sizeEv, symObjAddr: 0x215F0, symBinAddr: 0x100022040, symSize: 0xA0 }
  - { offset: 0x37EB4, size: 0x8, addend: 0x0, symName: __ZNSt3__116allocator_traitsINS_9allocatorI4DiskEEE11__constructIS2_JEEEvNS_17integral_constantIbLb1EEERS3_PT_DpOT0_, symObjAddr: 0x21690, symBinAddr: 0x1000220E0, symSize: 0x30 }
  - { offset: 0x37F01, size: 0x8, addend: 0x0, symName: __ZNSt3__19allocatorI4DiskE9constructIS1_JEEEvPT_DpOT0_, symObjAddr: 0x216C0, symBinAddr: 0x100022110, symSize: 0x30 }
  - { offset: 0x37F44, size: 0x8, addend: 0x0, symName: __ZNSt3__16vectorI4DiskNS_9allocatorIS1_EEE21_ConstructTransactionD2Ev, symObjAddr: 0x216F0, symBinAddr: 0x100022140, symSize: 0x230 }
  - { offset: 0x37F6E, size: 0x8, addend: 0x0, symName: __ZNKSt3__16vectorI4DiskNS_9allocatorIS1_EEE17__annotate_shrinkEm, symObjAddr: 0x21920, symBinAddr: 0x100022370, symSize: 0xC0 }
  - { offset: 0x37FA3, size: 0x8, addend: 0x0, symName: __ZNSt3__113__vector_baseI4DiskNS_9allocatorIS1_EEE5clearEv, symObjAddr: 0x219E0, symBinAddr: 0x100022430, symSize: 0x50 }
  - { offset: 0x37FC9, size: 0x8, addend: 0x0, symName: __ZNSt3__116allocator_traitsINS_9allocatorI4DiskEEE10deallocateERS3_PS2_m, symObjAddr: 0x21A30, symBinAddr: 0x100022480, symSize: 0x30 }
  - { offset: 0x3800B, size: 0x8, addend: 0x0, symName: __ZNSt3__113__vector_baseI4DiskNS_9allocatorIS1_EEE17__destruct_at_endEPS1_, symObjAddr: 0x21A60, symBinAddr: 0x1000224B0, symSize: 0xF0 }
  - { offset: 0x38052, size: 0x8, addend: 0x0, symName: __ZNSt3__116allocator_traitsINS_9allocatorI4DiskEEE7destroyIS2_EEvRS3_PT_, symObjAddr: 0x21B50, symBinAddr: 0x1000225A0, symSize: 0x30 }
  - { offset: 0x3808E, size: 0x8, addend: 0x0, symName: __ZNSt3__116allocator_traitsINS_9allocatorI4DiskEEE9__destroyIS2_EEvNS_17integral_constantIbLb1EEERS3_PT_, symObjAddr: 0x21B80, symBinAddr: 0x1000225D0, symSize: 0x30 }
  - { offset: 0x380D6, size: 0x8, addend: 0x0, symName: __ZNSt3__19allocatorI4DiskE7destroyEPS1_, symObjAddr: 0x21BB0, symBinAddr: 0x100022600, symSize: 0x10 }
  - { offset: 0x3810B, size: 0x8, addend: 0x0, symName: __ZNSt3__19allocatorI4DiskE10deallocateEPS1_m, symObjAddr: 0x21BC0, symBinAddr: 0x100022610, symSize: 0x50 }
  - { offset: 0x3814F, size: 0x8, addend: 0x0, symName: __ZNSt3__16vectorI4DiskNS_9allocatorIS1_EEED2Ev, symObjAddr: 0x21C10, symBinAddr: 0x100022660, symSize: 0x30 }
  - { offset: 0x38179, size: 0x8, addend: 0x0, symName: __ZNKSt3__16vectorI4DiskNS_9allocatorIS1_EEE17__annotate_deleteEv, symObjAddr: 0x21C40, symBinAddr: 0x100022690, symSize: 0xD0 }
  - { offset: 0x3819F, size: 0x8, addend: 0x0, symName: __ZNSt3__16vectorIiNS_9allocatorIiEEEC2ESt16initializer_listIiE, symObjAddr: 0x21D10, symBinAddr: 0x100022760, symSize: 0x320 }
  - { offset: 0x381DF, size: 0x8, addend: 0x0, symName: __ZNKSt16initializer_listIiE4sizeEv, symObjAddr: 0x22030, symBinAddr: 0x100022A80, symSize: 0x50 }
  - { offset: 0x38205, size: 0x8, addend: 0x0, symName: __ZNSt3__16vectorIiNS_9allocatorIiEEE18__construct_at_endIPKiEENS_9enable_ifIXsr27__is_cpp17_forward_iteratorIT_EE5valueEvE4typeES8_S8_m, symObjAddr: 0x22080, symBinAddr: 0x100022AD0, symSize: 0x2B0 }
  - { offset: 0x3827B, size: 0x8, addend: 0x0, symName: __ZNKSt16initializer_listIiE5beginEv, symObjAddr: 0x22330, symBinAddr: 0x100022D80, symSize: 0x50 }
  - { offset: 0x382A1, size: 0x8, addend: 0x0, symName: __ZNKSt16initializer_listIiE3endEv, symObjAddr: 0x22380, symBinAddr: 0x100022DD0, symSize: 0x90 }
  - { offset: 0x382C7, size: 0x8, addend: 0x0, symName: __ZNSt3__116allocator_traitsINS_9allocatorIiEEE25__construct_range_forwardIKiiiiEENS_9enable_ifIXaaaasr31is_trivially_copy_constructibleIT0_EE5valuesr7is_sameIT1_T2_EE5valueooL_ZNS_17integral_constantIbLb1EE5valueEEntsr15__has_constructIS2_PS7_RT_EE5valueEvE4typeERS2_PSD_SI_RSC_, symObjAddr: 0x22410, symBinAddr: 0x100022E60, symSize: 0xD0 }
  - { offset: 0x38349, size: 0x8, addend: 0x0, symName: __ZNKSt3__17variantIJN2sf5Event6ClosedENS2_7ResizedENS2_9FocusLostENS2_11FocusGainedENS2_11TextEnteredENS2_10KeyPressedENS2_11KeyReleasedENS2_18MouseWheelScrolledENS2_18MouseButtonPressedENS2_19MouseButtonReleasedENS2_10MouseMovedENS2_13MouseMovedRawENS2_12MouseEnteredENS2_9MouseLeftENS2_21JoystickButtonPressedENS2_22JoystickButtonReleasedENS2_13JoystickMovedENS2_17JoystickConnectedENS2_20JoystickDisconnectedENS2_10TouchBeganENS2_10TouchMovedENS2_10TouchEndedENS2_13SensorChangedEEE5indexEv, symObjAddr: 0x22530, symBinAddr: 0x100022F80, symSize: 0x20 }
  - { offset: 0x3836F, size: 0x8, addend: 0x0, symName: __ZNKSt3__116__variant_detail6__baseILNS0_6_TraitE0EJN2sf5Event6ClosedENS4_7ResizedENS4_9FocusLostENS4_11FocusGainedENS4_11TextEnteredENS4_10KeyPressedENS4_11KeyReleasedENS4_18MouseWheelScrolledENS4_18MouseButtonPressedENS4_19MouseButtonReleasedENS4_10MouseMovedENS4_13MouseMovedRawENS4_12MouseEnteredENS4_9MouseLeftENS4_21JoystickButtonPressedENS4_22JoystickButtonReleasedENS4_13JoystickMovedENS4_17JoystickConnectedENS4_20JoystickDisconnectedENS4_10TouchBeganENS4_10TouchMovedENS4_10TouchEndedENS4_13SensorChangedEEE5indexEv, symObjAddr: 0x22550, symBinAddr: 0x100022FA0, symSize: 0xE0 }
  - { offset: 0x3839B, size: 0x8, addend: 0x0, symName: __ZNSt3__116__variant_detail8__access9__variant9__get_altILm5ERNS_7variantIJN2sf5Event6ClosedENS6_7ResizedENS6_9FocusLostENS6_11FocusGainedENS6_11TextEnteredENS6_10KeyPressedENS6_11KeyReleasedENS6_18MouseWheelScrolledENS6_18MouseButtonPressedENS6_19MouseButtonReleasedENS6_10MouseMovedENS6_13MouseMovedRawENS6_12MouseEnteredENS6_9MouseLeftENS6_21JoystickButtonPressedENS6_22JoystickButtonReleasedENS6_13JoystickMovedENS6_17JoystickConnectedENS6_20JoystickDisconnectedENS6_10TouchBeganENS6_10TouchMovedENS6_10TouchEndedENS6_13SensorChangedEEEEEEODaOT0_, symObjAddr: 0x22720, symBinAddr: 0x100023170, symSize: 0x20 }
  - { offset: 0x383D2, size: 0x8, addend: 0x0, symName: __ZNSt3__116__variant_detail8__access6__base9__get_altILm5ERNS0_6__implIJN2sf5Event6ClosedENS6_7ResizedENS6_9FocusLostENS6_11FocusGainedENS6_11TextEnteredENS6_10KeyPressedENS6_11KeyReleasedENS6_18MouseWheelScrolledENS6_18MouseButtonPressedENS6_19MouseButtonReleasedENS6_10MouseMovedENS6_13MouseMovedRawENS6_12MouseEnteredENS6_9MouseLeftENS6_21JoystickButtonPressedENS6_22JoystickButtonReleasedENS6_13JoystickMovedENS6_17JoystickConnectedENS6_20JoystickDisconnectedENS6_10TouchBeganENS6_10TouchMovedENS6_10TouchEndedENS6_13SensorChangedEEEEEEODaOT0_, symObjAddr: 0x22740, symBinAddr: 0x100023190, symSize: 0x20 }
  - { offset: 0x38409, size: 0x8, addend: 0x0, symName: __ZNSt3__116__variant_detail8__access7__union9__get_altIRNS0_7__unionILNS0_6_TraitE0ELm0EJN2sf5Event6ClosedENS7_7ResizedENS7_9FocusLostENS7_11FocusGainedENS7_11TextEnteredENS7_10KeyPressedENS7_11KeyReleasedENS7_18MouseWheelScrolledENS7_18MouseButtonPressedENS7_19MouseButtonReleasedENS7_10MouseMovedENS7_13MouseMovedRawENS7_12MouseEnteredENS7_9MouseLeftENS7_21JoystickButtonPressedENS7_22JoystickButtonReleasedENS7_13JoystickMovedENS7_17JoystickConnectedENS7_20JoystickDisconnectedENS7_10TouchBeganENS7_10TouchMovedENS7_10TouchEndedENS7_13SensorChangedEEEELm5EEEODaOT_NS_16in_place_index_tIXT0_EEE, symObjAddr: 0x22760, symBinAddr: 0x1000231B0, symSize: 0x20 }
  - { offset: 0x3844C, size: 0x8, addend: 0x0, symName: __ZNSt3__116__variant_detail8__access7__union9__get_altIRNS0_7__unionILNS0_6_TraitE0ELm1EJN2sf5Event7ResizedENS7_9FocusLostENS7_11FocusGainedENS7_11TextEnteredENS7_10KeyPressedENS7_11KeyReleasedENS7_18MouseWheelScrolledENS7_18MouseButtonPressedENS7_19MouseButtonReleasedENS7_10MouseMovedENS7_13MouseMovedRawENS7_12MouseEnteredENS7_9MouseLeftENS7_21JoystickButtonPressedENS7_22JoystickButtonReleasedENS7_13JoystickMovedENS7_17JoystickConnectedENS7_20JoystickDisconnectedENS7_10TouchBeganENS7_10TouchMovedENS7_10TouchEndedENS7_13SensorChangedEEEELm4EEEODaOT_NS_16in_place_index_tIXT0_EEE, symObjAddr: 0x22780, symBinAddr: 0x1000231D0, symSize: 0x20 }
  - { offset: 0x3848F, size: 0x8, addend: 0x0, symName: __ZNSt3__116__variant_detail8__access7__union9__get_altIRNS0_7__unionILNS0_6_TraitE0ELm2EJN2sf5Event9FocusLostENS7_11FocusGainedENS7_11TextEnteredENS7_10KeyPressedENS7_11KeyReleasedENS7_18MouseWheelScrolledENS7_18MouseButtonPressedENS7_19MouseButtonReleasedENS7_10MouseMovedENS7_13MouseMovedRawENS7_12MouseEnteredENS7_9MouseLeftENS7_21JoystickButtonPressedENS7_22JoystickButtonReleasedENS7_13JoystickMovedENS7_17JoystickConnectedENS7_20JoystickDisconnectedENS7_10TouchBeganENS7_10TouchMovedENS7_10TouchEndedENS7_13SensorChangedEEEELm3EEEODaOT_NS_16in_place_index_tIXT0_EEE, symObjAddr: 0x227A0, symBinAddr: 0x1000231F0, symSize: 0x20 }
  - { offset: 0x384D2, size: 0x8, addend: 0x0, symName: __ZNSt3__116__variant_detail8__access7__union9__get_altIRNS0_7__unionILNS0_6_TraitE0ELm3EJN2sf5Event11FocusGainedENS7_11TextEnteredENS7_10KeyPressedENS7_11KeyReleasedENS7_18MouseWheelScrolledENS7_18MouseButtonPressedENS7_19MouseButtonReleasedENS7_10MouseMovedENS7_13MouseMovedRawENS7_12MouseEnteredENS7_9MouseLeftENS7_21JoystickButtonPressedENS7_22JoystickButtonReleasedENS7_13JoystickMovedENS7_17JoystickConnectedENS7_20JoystickDisconnectedENS7_10TouchBeganENS7_10TouchMovedENS7_10TouchEndedENS7_13SensorChangedEEEELm2EEEODaOT_NS_16in_place_index_tIXT0_EEE, symObjAddr: 0x227C0, symBinAddr: 0x100023210, symSize: 0x20 }
  - { offset: 0x38515, size: 0x8, addend: 0x0, symName: __ZNSt3__116__variant_detail8__access7__union9__get_altIRNS0_7__unionILNS0_6_TraitE0ELm4EJN2sf5Event11TextEnteredENS7_10KeyPressedENS7_11KeyReleasedENS7_18MouseWheelScrolledENS7_18MouseButtonPressedENS7_19MouseButtonReleasedENS7_10MouseMovedENS7_13MouseMovedRawENS7_12MouseEnteredENS7_9MouseLeftENS7_21JoystickButtonPressedENS7_22JoystickButtonReleasedENS7_13JoystickMovedENS7_17JoystickConnectedENS7_20JoystickDisconnectedENS7_10TouchBeganENS7_10TouchMovedENS7_10TouchEndedENS7_13SensorChangedEEEELm1EEEODaOT_NS_16in_place_index_tIXT0_EEE, symObjAddr: 0x227E0, symBinAddr: 0x100023230, symSize: 0x20 }
  - { offset: 0x38558, size: 0x8, addend: 0x0, symName: __ZNSt3__116__variant_detail8__access7__union9__get_altIRNS0_7__unionILNS0_6_TraitE0ELm5EJN2sf5Event10KeyPressedENS7_11KeyReleasedENS7_18MouseWheelScrolledENS7_18MouseButtonPressedENS7_19MouseButtonReleasedENS7_10MouseMovedENS7_13MouseMovedRawENS7_12MouseEnteredENS7_9MouseLeftENS7_21JoystickButtonPressedENS7_22JoystickButtonReleasedENS7_13JoystickMovedENS7_17JoystickConnectedENS7_20JoystickDisconnectedENS7_10TouchBeganENS7_10TouchMovedENS7_10TouchEndedENS7_13SensorChangedEEEEEEODaOT_NS_16in_place_index_tILm0EEE, symObjAddr: 0x22800, symBinAddr: 0x100023250, symSize: 0x10 }
  - { offset: 0x38591, size: 0x8, addend: 0x0, symName: __ZNSt3__16vectorI4DiskNS_9allocatorIS1_EEE11__make_iterEPS1_, symObjAddr: 0x22810, symBinAddr: 0x100023260, symSize: 0x180 }
  - { offset: 0x385CA, size: 0x8, addend: 0x0, symName: __ZNSt3__111__wrap_iterIP4DiskEC1ES2_, symObjAddr: 0x22990, symBinAddr: 0x1000233E0, symSize: 0x30 }
  - { offset: 0x38603, size: 0x8, addend: 0x0, symName: __ZNSt3__111__wrap_iterIP4DiskEC2ES2_, symObjAddr: 0x229C0, symBinAddr: 0x100023410, symSize: 0x60 }
...
